S'3.2'
p1
.S'LALR'
p1
.S'Df.\x83D\xe5I\xb0$\xc9\xdc\x92\xc0Y\x1f\xed'
p1
.(dp1
I0
(dp2
S'EXCEPTION'
p3
I-110
sS'PARTIAL'
p4
I-110
sS'DICTIONARY'
p5
I-110
sS'ENUM'
p6
I-110
sS'TYPEDEF'
p7
I-110
sS'LBRACKET'
p8
I1
sS'CALLBACK'
p9
I-110
sS'INTERFACE'
p10
I-110
sS'SCOPE'
p11
I-110
sS'IDENTIFIER'
p12
I-110
sS'$end'
p13
I-2
ssI1
(dp14
S'RBRACKET'
p15
I-115
sS'IDENTIFIER'
p16
I9
sS'COMMA'
p17
I-115
ssI2
(dp18
g3
I22
sg4
I26
sg5
I20
sg6
I21
sg7
I25
sg9
I28
sg10
I29
sg11
I12
sg12
I17
ssI3
(dp19
S'$end'
p20
I0
ssI4
(dp21
g15
I-117
sg17
I32
ssI5
(dp22
g15
I-114
sg17
I-114
ssI6
(dp23
g15
I-112
sg17
I-112
ssI7
(dp24
g15
I-113
sg17
I-113
ssI8
(dp25
g15
I-111
sg17
I-111
ssI9
(dp26
g15
I-218
sg17
I-218
sS'EQUALS'
p27
I33
sS'LPAREN'
p28
I34
ssI10
(dp29
g3
I-8
sg4
I-8
sg5
I-8
sg6
I-8
sg7
I-8
sg8
I-8
sg9
I-8
sg10
I-8
sg11
I-8
sg12
I-8
sg13
I-8
ssI11
(dp30
g3
I-3
sg4
I-3
sg5
I-3
sg6
I-3
sg7
I-3
sg8
I-3
sg9
I-3
sg10
I-3
sg11
I-3
sg12
I-3
sg13
I-3
ssI12
(dp31
S'IDENTIFIER'
p32
I35
ssI13
(dp33
g3
I-5
sg4
I-5
sg5
I-5
sg6
I-5
sg7
I-5
sg8
I-5
sg9
I-5
sg10
I-5
sg11
I-5
sg12
I-5
sg13
I-5
ssI14
(dp34
S'EXCEPTION'
p35
I-212
sS'CONST'
p36
I-212
sS'LBRACKET'
p37
I-212
sS'STATIC'
p38
I-212
sS'QUESTIONMARK'
p39
I-212
sS'SETTER'
p40
I-212
sS'RPAREN'
p41
I-212
sS'SEMICOLON'
p42
I-212
sS'CREATOR'
p43
I-212
sS'ELLIPSIS'
p44
I-212
sS'IDENTIFIER'
p45
I-212
sS'SERIALIZER'
p46
I-212
sS'TYPEDEF'
p47
I-212
sS'GT'
p48
I-212
sS'DICTIONARY'
p49
I-212
sS'ENUM'
p50
I-212
sS'INHERIT'
p51
I-212
sS'LEGACYCALLER'
p52
I-212
sS'GETTER'
p53
I-212
sS'LPAREN'
p54
I-212
sS'IMPLEMENTS'
p55
I-212
sS'LBRACE'
p56
I-212
sS'PARTIAL'
p57
I-212
sS'STRINGIFIER'
p58
I-212
sS'JSONIFIER'
p59
I-212
sS'ATTRIBUTE'
p60
I-212
sS'CALLBACK'
p61
I-212
sS'INTERFACE'
p62
I-212
sS'UNRESTRICTED'
p63
I-212
sS'OR'
p64
I-212
sS'DELETER'
p65
I-212
ssI15
(dp66
g3
I-7
sg4
I-7
sg5
I-7
sg6
I-7
sg7
I-7
sg8
I-7
sg9
I-7
sg10
I-7
sg11
I-7
sg12
I-7
sg13
I-7
ssI16
(dp67
g3
I-11
sg4
I-11
sg5
I-11
sg6
I-11
sg7
I-11
sg8
I-11
sg9
I-11
sg10
I-11
sg11
I-11
sg12
I-11
sg13
I-11
ssI17
(dp68
g35
I-217
sg36
I-217
sg37
I-217
sg38
I-217
sg39
I-217
sg40
I-217
sg41
I-217
sg42
I-217
sg43
I-217
sg44
I-217
sS'IDENTIFIER'
p69
I-217
sg46
I-217
sg47
I-217
sg48
I-217
sg49
I-217
sg50
I-217
sg51
I-217
sg52
I-217
sg53
I-217
sg54
I-217
sS'SCOPE'
p70
I36
sg55
I-217
sg56
I-217
sg57
I-217
sg58
I-217
sg59
I-217
sg60
I-217
sg61
I-217
sg62
I-217
sg63
I-217
sS'OR'
p71
I-217
sg65
I-217
ssI18
(dp72
g3
I-110
sg4
I-110
sg5
I-110
sg6
I-110
sg7
I-110
sg8
I1
sg9
I-110
sg10
I-110
sg11
I-110
sg12
I-110
sg13
I-2
ssI19
(dp73
g3
I-6
sg4
I-6
sg5
I-6
sg6
I-6
sg7
I-6
sg8
I-6
sg9
I-6
sg10
I-6
sg11
I-6
sg12
I-6
sg13
I-6
ssI20
(dp74
S'IDENTIFIER'
p75
I39
ssI21
(dp76
S'IDENTIFIER'
p77
I40
ssI22
(dp78
S'IDENTIFIER'
p79
I41
ssI23
(dp80
g3
I-4
sg4
I-4
sg5
I-4
sg6
I-4
sg7
I-4
sg8
I-4
sg9
I-4
sg10
I-4
sg11
I-4
sg12
I-4
sg13
I-4
ssI24
(dp81
g3
I-9
sg4
I-9
sg5
I-9
sg6
I-9
sg7
I-9
sg8
I-9
sg9
I-9
sg10
I-9
sg11
I-9
sg12
I-9
sg13
I-9
ssI25
(dp82
S'FLOAT'
p83
I62
sS'SHORT'
p84
I42
sS'DOMSTRING'
p85
I60
sS'SEQUENCE'
p86
I52
sS'DOUBLE'
p87
I61
sS'ARRAYBUFFER'
p88
I44
sS'OBJECT'
p89
I45
sS'OCTET'
p90
I53
sS'UNSIGNED'
p91
I46
sS'LONG'
p92
I50
sg12
I17
sS'BOOLEAN'
p93
I65
sS'UNRESTRICTED'
p94
I66
sS'LPAREN'
p95
I55
sS'DATE'
p96
I48
sg11
I12
sS'BYTE'
p97
I57
sS'BYTESTRING'
p98
I56
sS'ANY'
p99
I64
ssI26
(dp100
S'INTERFACE'
p101
I67
ssI27
(dp102
g35
I-213
sg36
I-213
sg37
I-213
sg38
I-213
sg39
I-213
sg40
I-213
sg41
I-213
sg42
I-213
sg43
I-213
sg44
I-213
sg45
I-213
sg46
I-213
sg47
I-213
sg48
I-213
sg49
I-213
sg50
I-213
sg51
I-213
sg52
I-213
sg53
I-213
sg54
I-213
sg55
I-213
sg56
I-213
sg57
I-213
sg58
I-213
sg59
I-213
sg60
I-213
sg61
I-213
sg62
I-213
sg63
I-213
sg64
I-213
sg65
I-213
ssI28
(dp103
g10
I29
sS'IDENTIFIER'
p104
I71
ssI29
(dp105
S'IDENTIFIER'
p106
I72
ssI30
(dp107
g55
I73
ssI31
(dp108
g15
I74
ssI32
(dp109
g15
I-115
sg16
I9
sg17
I-115
ssI33
(dp110
S'IDENTIFIER'
p111
I77
sS'STRING'
p112
I76
ssI34
(dp113
g84
I-110
sg88
I-110
sg89
I-110
sg8
I1
sg96
I-110
sS'RPAREN'
p114
I-76
sg85
I-110
sg91
I-110
sg92
I-110
sg12
I-110
sg86
I-110
sg90
I-110
sg95
I-110
sg11
I-110
sg97
I-110
sS'OPTIONAL'
p115
I-110
sg87
I-110
sg83
I-110
sg93
I-110
sg94
I-110
sg98
I-110
sg99
I-110
ssI35
(dp116
g35
I-217
sg36
I-217
sg37
I-217
sg38
I-217
sg39
I-217
sg40
I-217
sg41
I-217
sg42
I-217
sg43
I-217
sg44
I-217
sg69
I-217
sg46
I-217
sg47
I-217
sg48
I-217
sg49
I-217
sg50
I-217
sg51
I-217
sg52
I-217
sg53
I-217
sg54
I-217
sg70
I36
sg55
I-217
sg56
I-217
sg57
I-217
sg58
I-217
sg59
I-217
sg60
I-217
sg61
I-217
sg62
I-217
sg63
I-217
sg71
I-217
sg65
I-217
ssI36
(dp117
S'IDENTIFIER'
p118
I82
ssI37
(dp119
g35
I-215
sg36
I-215
sg37
I-215
sg38
I-215
sg39
I-215
sg40
I-215
sg41
I-215
sg42
I-215
sg43
I-215
sg44
I-215
sS'IDENTIFIER'
p120
I-215
sg46
I-215
sg47
I-215
sg48
I-215
sg49
I-215
sg50
I-215
sg51
I-215
sg52
I-215
sg53
I-215
sg54
I-215
sg55
I-215
sg56
I-215
sg57
I-215
sg58
I-215
sg59
I-215
sg60
I-215
sg61
I-215
sg62
I-215
sg63
I-215
sg71
I-215
sg65
I-215
ssI38
(dp121
g13
I-1
ssI39
(dp122
g56
I-18
sS'COLON'
p123
I84
ssI40
(dp124
S'LBRACE'
p125
I85
ssI41
(dp126
S'LBRACE'
p127
I-18
sg123
I84
ssI42
(dp128
g35
I-199
sg36
I-199
sg37
I-199
sg38
I-199
sg39
I-199
sg40
I-199
sg41
I-199
sg43
I-199
sg44
I-199
sg69
I-199
sg46
I-199
sg47
I-199
sg48
I-199
sg49
I-199
sg50
I-199
sg51
I-199
sg52
I-199
sg53
I-199
sS'LPAREN'
p129
I-199
sS'IMPLEMENTS'
p130
I-199
sg57
I-199
sg58
I-199
sg59
I-199
sg60
I-199
sg61
I-199
sg62
I-199
sg63
I-199
sg71
I-199
sg65
I-199
ssI43
(dp131
g35
I-205
sg36
I-205
sg37
I87
sg38
I-205
sg39
I89
sg40
I-205
sg41
I-205
sg43
I-205
sg44
I-205
sg69
I-205
sg46
I-205
sg47
I-205
sg48
I-205
sg49
I-205
sg50
I-205
sg51
I-205
sg52
I-205
sg53
I-205
sg54
I-205
sg130
I-205
sg57
I-205
sg58
I-205
sg59
I-205
sg60
I-205
sg61
I-205
sg62
I-205
sg63
I-205
sg71
I-205
sg65
I-205
ssI44
(dp132
g35
I-205
sg36
I-205
sg37
I87
sg38
I-205
sg39
I89
sg40
I-205
sg41
I-205
sg43
I-205
sg44
I-205
sg69
I-205
sg46
I-205
sg47
I-205
sg48
I-205
sg49
I-205
sg50
I-205
sg51
I-205
sg52
I-205
sg53
I-205
sg54
I-205
sg130
I-205
sg57
I-205
sg58
I-205
sg59
I-205
sg60
I-205
sg61
I-205
sg62
I-205
sg63
I-205
sg71
I-205
sg65
I-205
ssI45
(dp133
g35
I-205
sg36
I-205
sg37
I87
sg38
I-205
sg39
I89
sg40
I-205
sg41
I-205
sg43
I-205
sg44
I-205
sg69
I-205
sg46
I-205
sg47
I-205
sg48
I-205
sg49
I-205
sg50
I-205
sg51
I-205
sg52
I-205
sg53
I-205
sg54
I-205
sg130
I-205
sg57
I-205
sg58
I-205
sg59
I-205
sg60
I-205
sg61
I-205
sg62
I-205
sg63
I-205
sg71
I-205
sg65
I-205
ssI46
(dp134
g84
I42
sg92
I50
ssI47
(dp135
g35
I-168
sg36
I-168
sg38
I-168
sg40
I-168
sg43
I-168
sg44
I-168
sg45
I-168
sg46
I-168
sg47
I-168
sg48
I-168
sg49
I-168
sg50
I-168
sg51
I-168
sg52
I-168
sg53
I-168
sg129
I-168
sg130
I-168
sg57
I-168
sg58
I-168
sg59
I-168
sg60
I-168
sg61
I-168
sg62
I-168
sg63
I-168
sg65
I-168
ssI48
(dp136
g35
I-205
sg36
I-205
sg37
I87
sg38
I-205
sg39
I89
sg40
I-205
sg41
I-205
sg43
I-205
sg44
I-205
sg69
I-205
sg46
I-205
sg47
I-205
sg48
I-205
sg49
I-205
sg50
I-205
sg51
I-205
sg52
I-205
sg53
I-205
sg54
I-205
sg130
I-205
sg57
I-205
sg58
I-205
sg59
I-205
sg60
I-205
sg61
I-205
sg62
I-205
sg63
I-205
sg71
I-205
sg65
I-205
ssI49
(dp137
g69
I94
ssI50
(dp138
g35
I-202
sg36
I-202
sg37
I-202
sg38
I-202
sg39
I-202
sg40
I-202
sg41
I-202
sg43
I-202
sS'LONG'
p139
I96
sg44
I-202
sg69
I-202
sg46
I-202
sg47
I-202
sg48
I-202
sg49
I-202
sg50
I-202
sg51
I-202
sg52
I-202
sg53
I-202
sg54
I-202
sg130
I-202
sg57
I-202
sg58
I-202
sg59
I-202
sg60
I-202
sg61
I-202
sg62
I-202
sg63
I-202
sg71
I-202
sg65
I-202
ssI51
(dp140
g35
I-170
sg36
I-170
sg38
I-170
sg40
I-170
sg43
I-170
sg44
I-170
sg69
I-170
sg46
I-170
sg47
I-170
sg48
I-170
sg49
I-170
sg50
I-170
sg51
I-170
sg52
I-170
sg53
I-170
sg129
I-170
sg130
I-170
sg57
I-170
sg58
I-170
sg59
I-170
sg60
I-170
sg61
I-170
sg62
I-170
sg63
I-170
sg65
I-170
ssI52
(dp141
S'LT'
p142
I97
ssI53
(dp143
g35
I-190
sg36
I-190
sg37
I-190
sg38
I-190
sg39
I-190
sg40
I-190
sg41
I-190
sg43
I-190
sg44
I-190
sg69
I-190
sg46
I-190
sg47
I-190
sg48
I-190
sg49
I-190
sg50
I-190
sg51
I-190
sg52
I-190
sg53
I-190
sg54
I-190
sg130
I-190
sg57
I-190
sg58
I-190
sg59
I-190
sg60
I-190
sg61
I-190
sg62
I-190
sg63
I-190
sg71
I-190
sg65
I-190
ssI54
(dp144
g35
I-198
sg36
I-198
sg37
I-198
sg38
I-198
sS'QUESTIONMARK'
p145
I-198
sg40
I-198
sg41
I-198
sg43
I-198
sg44
I-198
sS'IDENTIFIER'
p146
I-198
sg46
I-198
sg47
I-198
sg48
I-198
sg49
I-198
sg50
I-198
sg51
I-198
sg52
I-198
sg53
I-198
sg54
I-198
sg130
I-198
sg57
I-198
sg58
I-198
sg59
I-198
sg60
I-198
sg61
I-198
sg62
I-198
sg63
I-198
sg64
I-198
sg65
I-198
ssI55
(dp147
g83
I62
sg84
I42
sg85
I60
sg86
I52
sg87
I61
sg88
I44
sg89
I45
sg90
I53
sg91
I46
sg92
I50
sg12
I17
sg93
I65
sg94
I66
sg95
I55
sg96
I48
sg11
I12
sg97
I57
sg98
I56
sS'ANY'
p148
I102
ssI56
(dp149
g35
I-196
sg36
I-196
sg37
I-196
sg38
I-196
sg39
I-196
sg40
I-196
sg41
I-196
sg43
I-196
sg44
I-196
sg69
I-196
sg46
I-196
sg47
I-196
sg48
I-196
sg49
I-196
sg50
I-196
sg51
I-196
sg52
I-196
sg53
I-196
sg54
I-196
sg130
I-196
sg57
I-196
sg58
I-196
sg59
I-196
sg60
I-196
sg61
I-196
sg62
I-196
sg63
I-196
sg71
I-196
sg65
I-196
ssI57
(dp150
g35
I-189
sg36
I-189
sg37
I-189
sg38
I-189
sg39
I-189
sg40
I-189
sg41
I-189
sg43
I-189
sg44
I-189
sg69
I-189
sg46
I-189
sg47
I-189
sg48
I-189
sg49
I-189
sg50
I-189
sg51
I-189
sg52
I-189
sg53
I-189
sg54
I-189
sg130
I-189
sg57
I-189
sg58
I-189
sg59
I-189
sg60
I-189
sg61
I-189
sg62
I-189
sg63
I-189
sg71
I-189
sg65
I-189
ssI58
(dp151
g35
I-205
sg36
I-205
sg37
I87
sg38
I-205
sg39
I89
sg40
I-205
sg43
I-205
sg44
I-205
sg69
I-205
sg46
I-205
sg47
I-205
sg48
I-205
sg49
I-205
sg50
I-205
sg51
I-205
sg52
I-205
sg53
I-205
sg54
I-205
sg130
I-205
sg57
I-205
sg58
I-205
sg59
I-205
sg60
I-205
sg61
I-205
sg62
I-205
sg63
I-205
sg65
I-205
ssI59
(dp152
g35
I-205
sg36
I-205
sg37
I87
sg38
I-205
sg39
I89
sg40
I-205
sg41
I-205
sg43
I-205
sg44
I-205
sg69
I-205
sg46
I-205
sg47
I-205
sg48
I-205
sg49
I-205
sg50
I-205
sg51
I-205
sg52
I-205
sg53
I-205
sg54
I-205
sg130
I-205
sg57
I-205
sg58
I-205
sg59
I-205
sg60
I-205
sg61
I-205
sg62
I-205
sg63
I-205
sg71
I-205
sg65
I-205
ssI60
(dp153
g35
I-195
sg36
I-195
sg37
I-195
sg38
I-195
sg39
I-195
sg40
I-195
sg41
I-195
sg43
I-195
sg44
I-195
sg69
I-195
sg46
I-195
sg47
I-195
sg48
I-195
sg49
I-195
sg50
I-195
sg51
I-195
sg52
I-195
sg53
I-195
sg54
I-195
sg130
I-195
sg57
I-195
sg58
I-195
sg59
I-195
sg60
I-195
sg61
I-195
sg62
I-195
sg63
I-195
sg71
I-195
sg65
I-195
ssI61
(dp154
g35
I-193
sg36
I-193
sg37
I-193
sg38
I-193
sg39
I-193
sg40
I-193
sg41
I-193
sg43
I-193
sg44
I-193
sg69
I-193
sg46
I-193
sg47
I-193
sg48
I-193
sg49
I-193
sg50
I-193
sg51
I-193
sg52
I-193
sg53
I-193
sg54
I-193
sg130
I-193
sg57
I-193
sg58
I-193
sg59
I-193
sg60
I-193
sg61
I-193
sg62
I-193
sg63
I-193
sg71
I-193
sg65
I-193
ssI62
(dp155
g35
I-191
sg36
I-191
sg37
I-191
sg38
I-191
sg39
I-191
sg40
I-191
sg41
I-191
sg43
I-191
sg44
I-191
sg69
I-191
sg46
I-191
sg47
I-191
sg48
I-191
sg49
I-191
sg50
I-191
sg51
I-191
sg52
I-191
sg53
I-191
sg54
I-191
sg130
I-191
sg57
I-191
sg58
I-191
sg59
I-191
sg60
I-191
sg61
I-191
sg62
I-191
sg63
I-191
sg71
I-191
sg65
I-191
ssI63
(dp156
g35
I-187
sg36
I-187
sg37
I-187
sg38
I-187
sg39
I-187
sg40
I-187
sg41
I-187
sg43
I-187
sg44
I-187
sg69
I-187
sg46
I-187
sg47
I-187
sg48
I-187
sg49
I-187
sg50
I-187
sg51
I-187
sg52
I-187
sg53
I-187
sg54
I-187
sg130
I-187
sg57
I-187
sg58
I-187
sg59
I-187
sg60
I-187
sg61
I-187
sg62
I-187
sg63
I-187
sg71
I-187
sg65
I-187
ssI64
(dp157
g35
I-207
sg36
I-207
sS'LBRACKET'
p158
I105
sg38
I-207
sg40
I-207
sg43
I-207
sg44
I-207
sg69
I-207
sg46
I-207
sg47
I-207
sg48
I-207
sg49
I-207
sg50
I-207
sg51
I-207
sg52
I-207
sg53
I-207
sg54
I-207
sg130
I-207
sg57
I-207
sg58
I-207
sg59
I-207
sg60
I-207
sg61
I-207
sg62
I-207
sg63
I-207
sg65
I-207
ssI65
(dp159
g35
I-188
sg36
I-188
sg37
I-188
sg38
I-188
sg39
I-188
sg40
I-188
sg41
I-188
sg43
I-188
sg44
I-188
sg69
I-188
sg46
I-188
sg47
I-188
sg48
I-188
sg49
I-188
sg50
I-188
sg51
I-188
sg52
I-188
sg53
I-188
sg54
I-188
sg130
I-188
sg57
I-188
sg58
I-188
sg59
I-188
sg60
I-188
sg61
I-188
sg62
I-188
sg63
I-188
sg71
I-188
sg65
I-188
ssI66
(dp160
S'DOUBLE'
p161
I107
sS'FLOAT'
p162
I108
ssI67
(dp163
S'IDENTIFIER'
p164
I109
ssI68
(dp165
g3
I-10
sg4
I-10
sg5
I-10
sg6
I-10
sg7
I-10
sg8
I-10
sg9
I-10
sg10
I-10
sg11
I-10
sg12
I-10
sg13
I-10
ssI69
(dp166
g3
I-12
sg4
I-12
sg5
I-12
sg6
I-12
sg7
I-12
sg8
I-12
sg9
I-12
sg10
I-12
sg11
I-12
sg12
I-12
sg13
I-12
ssI70
(dp167
g3
I-13
sg4
I-13
sg5
I-13
sg6
I-13
sg7
I-13
sg8
I-13
sg9
I-13
sg10
I-13
sg11
I-13
sg12
I-13
sg13
I-13
ssI71
(dp168
S'EQUALS'
p169
I110
ssI72
(dp170
S'LBRACE'
p171
I-18
sg123
I84
sS'SEMICOLON'
p172
I111
ssI73
(dp173
g11
I12
sg12
I17
ssI74
(dp174
g3
I-109
sg84
I-109
sS'CONST'
p175
I-109
sg88
I-109
sg89
I-109
sS'STATIC'
p176
I-109
sg96
I-109
sS'SETTER'
p177
I-109
sg85
I-109
sS'CREATOR'
p178
I-109
sg91
I-109
sg92
I-109
sS'READONLY'
p179
I-109
sg12
I-109
sS'VOID'
p180
I-109
sg7
I-109
sg5
I-109
sg86
I-109
sg6
I-109
sg90
I-109
sS'INHERIT'
p181
I-109
sS'LEGACYCALLER'
p182
I-109
sS'GETTER'
p183
I-109
sg95
I-109
sg11
I-109
sg97
I-109
sg115
I-109
sg4
I-109
sS'STRINGIFIER'
p184
I-109
sS'JSONIFIER'
p185
I-109
sg87
I-109
sg83
I-109
sg9
I-109
sg93
I-109
sS'ATTRIBUTE'
p186
I-109
sg10
I-109
sg94
I-109
sg98
I-109
sg99
I-109
sS'DELETER'
p187
I-109
ssI75
(dp188
g15
I-117
sg17
I32
ssI76
(dp189
g15
I-220
sg17
I-220
ssI77
(dp190
g15
I-221
sg17
I-221
sS'LPAREN'
p191
I115
ssI78
(dp192
g114
I116
ssI79
(dp193
g114
I-78
sS'COMMA'
p194
I117
ssI80
(dp195
g83
I-103
sg84
I-103
sg85
I-103
sg86
I-103
sg87
I-103
sg88
I-103
sg89
I-103
sg90
I-103
sg91
I-103
sg92
I-103
sg12
I-103
sg93
I-103
sg94
I-103
sg95
I-103
sg96
I-103
sg11
I-103
sg97
I-103
sg98
I-103
sg115
I119
sg99
I-103
ssI81
(dp196
g35
I-214
sg36
I-214
sg37
I-214
sg38
I-214
sg39
I-214
sg40
I-214
sg41
I-214
sg42
I-214
sg43
I-214
sg44
I-214
sg120
I-214
sg46
I-214
sg47
I-214
sg48
I-214
sg49
I-214
sg50
I-214
sg51
I-214
sg52
I-214
sg53
I-214
sg129
I-214
sg130
I-214
sg56
I-214
sg57
I-214
sg58
I-214
sg59
I-214
sg60
I-214
sg61
I-214
sg62
I-214
sg63
I-214
sg71
I-214
sg65
I-214
ssI82
(dp197
g35
I-217
sg36
I-217
sg37
I-217
sg38
I-217
sg39
I-217
sg40
I-217
sg41
I-217
sg42
I-217
sg43
I-217
sg44
I-217
sg69
I-217
sg46
I-217
sg47
I-217
sg48
I-217
sg49
I-217
sg50
I-217
sg51
I-217
sg52
I-217
sg53
I-217
sg54
I-217
sg70
I36
sg55
I-217
sg56
I-217
sg57
I-217
sg58
I-217
sg59
I-217
sg60
I-217
sg61
I-217
sg62
I-217
sg63
I-217
sg71
I-217
sg65
I-217
ssI83
(dp198
g56
I122
ssI84
(dp199
g11
I12
sg12
I17
ssI85
(dp200
S'STRING'
p201
I125
ssI86
(dp202
g127
I126
ssI87
(dp203
S'RBRACKET'
p204
I127
ssI88
(dp205
g35
I-179
sg36
I-179
sg38
I-179
sg40
I-179
sg41
I-179
sg43
I-179
sg44
I-179
sg120
I-179
sg46
I-179
sg47
I-179
sg48
I-179
sg49
I-179
sg50
I-179
sg51
I-179
sg52
I-179
sg53
I-179
sg129
I-179
sg130
I-179
sg57
I-179
sg58
I-179
sg59
I-179
sg60
I-179
sg61
I-179
sg62
I-179
sg63
I-179
sg64
I-179
sg65
I-179
ssI89
(dp206
g35
I-207
sg36
I-207
sg158
I105
sg38
I-207
sg40
I-207
sg41
I-207
sg43
I-207
sg44
I-207
sg69
I-207
sg46
I-207
sg47
I-207
sg48
I-207
sg49
I-207
sg50
I-207
sg51
I-207
sg52
I-207
sg53
I-207
sg54
I-207
sg130
I-207
sg57
I-207
sg58
I-207
sg59
I-207
sg60
I-207
sg61
I-207
sg62
I-207
sg63
I-207
sg71
I-207
sg65
I-207
ssI90
(dp207
g35
I-180
sg36
I-180
sg38
I-180
sg40
I-180
sg41
I-180
sg43
I-180
sg44
I-180
sg120
I-180
sg46
I-180
sg47
I-180
sg48
I-180
sg49
I-180
sg50
I-180
sg51
I-180
sg52
I-180
sg53
I-180
sg129
I-180
sg130
I-180
sg57
I-180
sg58
I-180
sg59
I-180
sg60
I-180
sg61
I-180
sg62
I-180
sg63
I-180
sg64
I-180
sg65
I-180
ssI91
(dp208
g35
I-181
sg36
I-181
sg38
I-181
sg40
I-181
sg41
I-181
sg43
I-181
sg44
I-181
sg120
I-181
sg46
I-181
sg47
I-181
sg48
I-181
sg49
I-181
sg50
I-181
sg51
I-181
sg52
I-181
sg53
I-181
sg129
I-181
sg130
I-181
sg57
I-181
sg58
I-181
sg59
I-181
sg60
I-181
sg61
I-181
sg62
I-181
sg63
I-181
sg64
I-181
sg65
I-181
ssI92
(dp209
g35
I-197
sg36
I-197
sg37
I-197
sg38
I-197
sg145
I-197
sg40
I-197
sg41
I-197
sg43
I-197
sg44
I-197
sg146
I-197
sg46
I-197
sg47
I-197
sg48
I-197
sg49
I-197
sg50
I-197
sg51
I-197
sg52
I-197
sg53
I-197
sg54
I-197
sg130
I-197
sg57
I-197
sg58
I-197
sg59
I-197
sg60
I-197
sg61
I-197
sg62
I-197
sg63
I-197
sg64
I-197
sg65
I-197
ssI93
(dp210
g35
I-184
sg36
I-184
sg38
I-184
sg40
I-184
sg41
I-184
sg43
I-184
sg44
I-184
sg120
I-184
sg46
I-184
sg47
I-184
sg48
I-184
sg49
I-184
sg50
I-184
sg51
I-184
sg52
I-184
sg53
I-184
sg129
I-184
sg130
I-184
sg57
I-184
sg58
I-184
sg59
I-184
sg60
I-184
sg61
I-184
sg62
I-184
sg63
I-184
sg64
I-184
sg65
I-184
ssI94
(dp211
S'SEMICOLON'
p212
I129
ssI95
(dp213
g35
I-200
sg36
I-200
sg37
I-200
sg38
I-200
sg39
I-200
sg40
I-200
sg41
I-200
sg43
I-200
sg44
I-200
sg69
I-200
sg46
I-200
sg47
I-200
sg48
I-200
sg49
I-200
sg50
I-200
sg51
I-200
sg52
I-200
sg53
I-200
sg129
I-200
sg130
I-200
sg57
I-200
sg58
I-200
sg59
I-200
sg60
I-200
sg61
I-200
sg62
I-200
sg63
I-200
sg71
I-200
sg65
I-200
ssI96
(dp214
g35
I-201
sg36
I-201
sg37
I-201
sg38
I-201
sg39
I-201
sg40
I-201
sg41
I-201
sg43
I-201
sg44
I-201
sg69
I-201
sg46
I-201
sg47
I-201
sg48
I-201
sg49
I-201
sg50
I-201
sg51
I-201
sg52
I-201
sg53
I-201
sg54
I-201
sg130
I-201
sg57
I-201
sg58
I-201
sg59
I-201
sg60
I-201
sg61
I-201
sg62
I-201
sg63
I-201
sg71
I-201
sg65
I-201
ssI97
(dp215
g83
I62
sg84
I42
sg85
I60
sg86
I52
sg87
I61
sg88
I44
sg89
I45
sg90
I53
sg91
I46
sg92
I50
sg12
I17
sg93
I65
sg94
I66
sg95
I55
sg96
I48
sg11
I12
sg97
I57
sg98
I56
sg99
I64
ssI98
(dp216
g37
I87
sg39
I89
sg41
I-205
sg71
I-205
ssI99
(dp217
g71
I132
ssI100
(dp218
g41
I-173
sg64
I-173
ssI101
(dp219
g37
I87
sg39
I89
sg41
I-205
sg71
I-205
ssI102
(dp220
S'LBRACKET'
p221
I134
ssI103
(dp222
g35
I-169
sg36
I-169
sg38
I-169
sg40
I-169
sg43
I-169
sg44
I-169
sg45
I-169
sg46
I-169
sg47
I-169
sg48
I-169
sg49
I-169
sg50
I-169
sg51
I-169
sg52
I-169
sg53
I-169
sg129
I-169
sg130
I-169
sg57
I-169
sg58
I-169
sg59
I-169
sg60
I-169
sg61
I-169
sg62
I-169
sg63
I-169
sg65
I-169
ssI104
(dp223
g35
I-183
sg36
I-183
sg38
I-183
sg40
I-183
sg41
I-183
sg43
I-183
sg44
I-183
sg120
I-183
sg46
I-183
sg47
I-183
sg48
I-183
sg49
I-183
sg50
I-183
sg51
I-183
sg52
I-183
sg53
I-183
sg129
I-183
sg130
I-183
sg57
I-183
sg58
I-183
sg59
I-183
sg60
I-183
sg61
I-183
sg62
I-183
sg63
I-183
sg64
I-183
sg65
I-183
ssI105
(dp224
S'RBRACKET'
p225
I135
ssI106
(dp226
g35
I-171
sg36
I-171
sg38
I-171
sg40
I-171
sg43
I-171
sg44
I-171
sg69
I-171
sg46
I-171
sg47
I-171
sg48
I-171
sg49
I-171
sg50
I-171
sg51
I-171
sg52
I-171
sg53
I-171
sg129
I-171
sg130
I-171
sg57
I-171
sg58
I-171
sg59
I-171
sg60
I-171
sg61
I-171
sg62
I-171
sg63
I-171
sg65
I-171
ssI107
(dp227
g35
I-194
sg36
I-194
sg37
I-194
sg38
I-194
sg39
I-194
sg40
I-194
sg41
I-194
sg43
I-194
sg44
I-194
sg69
I-194
sg46
I-194
sg47
I-194
sg48
I-194
sg49
I-194
sg50
I-194
sg51
I-194
sg52
I-194
sg53
I-194
sg54
I-194
sg130
I-194
sg57
I-194
sg58
I-194
sg59
I-194
sg60
I-194
sg61
I-194
sg62
I-194
sg63
I-194
sg71
I-194
sg65
I-194
ssI108
(dp228
g35
I-192
sg36
I-192
sg37
I-192
sg38
I-192
sg39
I-192
sg40
I-192
sg41
I-192
sg43
I-192
sg44
I-192
sg69
I-192
sg46
I-192
sg47
I-192
sg48
I-192
sg49
I-192
sg50
I-192
sg51
I-192
sg52
I-192
sg53
I-192
sg54
I-192
sg130
I-192
sg57
I-192
sg58
I-192
sg59
I-192
sg60
I-192
sg61
I-192
sg62
I-192
sg63
I-192
sg71
I-192
sg65
I-192
ssI109
(dp229
S'LBRACE'
p230
I136
ssI110
(dp231
g83
I62
sg84
I42
sg85
I60
sg86
I52
sg87
I61
sg88
I44
sg89
I45
sg90
I53
sg91
I46
sg92
I50
sg99
I64
sg12
I17
sg93
I65
sg94
I66
sg95
I55
sg96
I48
sg11
I12
sg97
I57
sg98
I56
sg180
I137
ssI111
(dp232
g3
I-15
sg4
I-15
sg5
I-15
sg6
I-15
sg7
I-15
sg8
I-15
sg9
I-15
sg10
I-15
sg11
I-15
sg12
I-15
sg13
I-15
ssI112
(dp233
g171
I140
ssI113
(dp234
g42
I141
ssI114
(dp235
g15
I-116
ssI115
(dp236
g84
I-110
sg88
I-110
sg89
I-110
sg8
I1
sg96
I-110
sS'RPAREN'
p237
I-76
sg85
I-110
sg91
I-110
sg92
I-110
sg12
I-110
sg86
I-110
sg90
I-110
sg95
I-110
sg11
I-110
sg97
I-110
sg115
I-110
sg87
I-110
sg83
I-110
sg93
I-110
sg94
I-110
sg98
I-110
sg99
I-110
ssI116
(dp238
g15
I-219
sg17
I-219
ssI117
(dp239
g83
I-110
sg84
I-110
sg85
I-110
sg86
I-110
sg87
I-110
sg88
I-110
sg89
I-110
sg90
I-110
sg91
I-110
sg92
I-110
sg8
I1
sg12
I-110
sg93
I-110
sg94
I-110
sg95
I-110
sg96
I-110
sg11
I-110
sg97
I-110
sg98
I-110
sg115
I-110
sg99
I-110
ssI118
(dp240
S'RPAREN'
p241
I-75
ssI119
(dp242
g83
I-102
sg84
I-102
sg85
I-102
sg86
I-102
sg87
I-102
sg88
I-102
sg89
I-102
sg90
I-102
sg91
I-102
sg92
I-102
sg12
I-102
sg93
I-102
sg94
I-102
sg95
I-102
sg96
I-102
sg11
I-102
sg97
I-102
sg98
I-102
sg99
I-102
ssI120
(dp243
g83
I62
sg84
I42
sg85
I60
sg86
I52
sg87
I61
sg88
I44
sg89
I45
sg90
I53
sg91
I46
sg92
I50
sg12
I17
sg93
I65
sg94
I66
sg95
I55
sg96
I48
sg11
I12
sg97
I57
sg98
I56
sg99
I64
ssI121
(dp244
g35
I-216
sg36
I-216
sg37
I-216
sg38
I-216
sg39
I-216
sg40
I-216
sg41
I-216
sg42
I-216
sg43
I-216
sg44
I-216
sg69
I-216
sg46
I-216
sg47
I-216
sg48
I-216
sg49
I-216
sg50
I-216
sg51
I-216
sg52
I-216
sg53
I-216
sg54
I-216
sg55
I-216
sg56
I-216
sg57
I-216
sg58
I-216
sg59
I-216
sg60
I-216
sg61
I-216
sg62
I-216
sg63
I-216
sg71
I-216
sg65
I-216
ssI122
(dp245
g83
I-110
sg84
I-110
sS'RBRACE'
p246
I-25
sg85
I-110
sg86
I-110
sg87
I-110
sg88
I-110
sg89
I-110
sg90
I-110
sg91
I-110
sg92
I-110
sg8
I1
sg12
I-110
sg93
I-110
sg94
I-110
sg95
I-110
sg96
I-110
sg11
I-110
sg97
I-110
sg98
I-110
sg99
I-110
ssI123
(dp247
g56
I-17
ssI124
(dp248
S'RBRACE'
p249
I147
ssI125
(dp250
S'COMMA'
p251
I148
sg249
I-33
ssI126
(dp252
g84
I-110
sg175
I-110
sg88
I-110
sg89
I-110
sg8
I1
sg96
I-110
sg85
I-110
sg91
I-110
sg92
I-110
sg12
I-110
sS'RBRACE'
p253
I-38
sg86
I-110
sg90
I-110
sg95
I-110
sg11
I-110
sg97
I-110
sg87
I-110
sg83
I-110
sg93
I-110
sg94
I-110
sg98
I-110
sg99
I-110
ssI127
(dp254
g35
I-205
sg36
I-205
sg37
I87
sg38
I-205
sg39
I89
sg40
I-205
sg41
I-205
sg43
I-205
sg44
I-205
sg69
I-205
sg46
I-205
sg47
I-205
sg48
I-205
sg49
I-205
sg50
I-205
sg51
I-205
sg52
I-205
sg53
I-205
sg54
I-205
sg130
I-205
sg57
I-205
sg58
I-205
sg59
I-205
sg60
I-205
sg61
I-205
sg62
I-205
sg63
I-205
sg71
I-205
sg65
I-205
ssI128
(dp255
g35
I-204
sg36
I-204
sg38
I-204
sg40
I-204
sg41
I-204
sg43
I-204
sg44
I-204
sg69
I-204
sg46
I-204
sg47
I-204
sg48
I-204
sg49
I-204
sg50
I-204
sg51
I-204
sg52
I-204
sg53
I-204
sg54
I-204
sg130
I-204
sg57
I-204
sg58
I-204
sg59
I-204
sg60
I-204
sg61
I-204
sg62
I-204
sg63
I-204
sg71
I-204
sg65
I-204
ssI129
(dp256
g3
I-39
sg4
I-39
sg5
I-39
sg6
I-39
sg7
I-39
sg8
I-39
sg9
I-39
sg10
I-39
sg11
I-39
sg12
I-39
sg13
I-39
ssI130
(dp257
g48
I153
ssI131
(dp258
g41
I-176
sg64
I-176
ssI132
(dp259
g83
I62
sg84
I42
sg85
I60
sg86
I52
sg87
I61
sg88
I44
sg89
I45
sg90
I53
sg91
I46
sg92
I50
sg12
I17
sg93
I65
sg94
I66
sg95
I55
sg96
I48
sg11
I12
sg97
I57
sg98
I56
sg148
I102
ssI133
(dp260
g41
I-175
sg64
I-175
ssI134
(dp261
S'RBRACKET'
p262
I155
ssI135
(dp263
g35
I-205
sg36
I-205
sg37
I87
sg38
I-205
sg39
I89
sg40
I-205
sg41
I-205
sg43
I-205
sg44
I-205
sg69
I-205
sg46
I-205
sg47
I-205
sg48
I-205
sg49
I-205
sg50
I-205
sg51
I-205
sg52
I-205
sg53
I-205
sg54
I-205
sg130
I-205
sg57
I-205
sg58
I-205
sg59
I-205
sg60
I-205
sg61
I-205
sg62
I-205
sg63
I-205
sg71
I-205
sg65
I-205
ssI136
(dp264
g84
I-110
sg175
I-110
sg88
I-110
sg89
I-110
sg8
I1
sg176
I-110
sg96
I-110
sg177
I-110
sg85
I-110
sg178
I-110
sg91
I-110
sg92
I-110
sg179
I-110
sg12
I-110
sg180
I-110
sS'RBRACE'
p265
I-20
sg86
I-110
sg90
I-110
sg181
I-110
sg182
I-110
sg183
I-110
sg95
I-110
sg11
I-110
sg97
I-110
sg184
I-110
sg185
I-110
sg186
I-110
sg83
I-110
sg93
I-110
sg87
I-110
sg94
I-110
sg98
I-110
sg99
I-110
sg187
I-110
ssI137
(dp266
S'IDENTIFIER'
p267
I-211
sg129
I-211
ssI138
(dp268
g267
I-210
sg129
I-210
ssI139
(dp269
g54
I159
ssI140
(dp270
g84
I-110
sg175
I-110
sg88
I-110
sg89
I-110
sg8
I1
sg176
I-110
sg96
I-110
sg177
I-110
sg85
I-110
sg178
I-110
sg91
I-110
sg92
I-110
sg179
I-110
sg12
I-110
sg180
I-110
sS'RBRACE'
p271
I-20
sg86
I-110
sg90
I-110
sg181
I-110
sg182
I-110
sg183
I-110
sg95
I-110
sg11
I-110
sg97
I-110
sg184
I-110
sg185
I-110
sg186
I-110
sg83
I-110
sg93
I-110
sg87
I-110
sg94
I-110
sg98
I-110
sg99
I-110
sg187
I-110
ssI141
(dp272
g3
I-40
sg4
I-40
sg5
I-40
sg6
I-40
sg7
I-40
sg8
I-40
sg9
I-40
sg10
I-40
sg11
I-40
sg12
I-40
sg13
I-40
ssI142
(dp273
g237
I161
ssI143
(dp274
g114
I-78
sg194
I117
ssI144
(dp275
g35
I-105
sg36
I-105
sg38
I-105
sg40
I-105
sg43
I-105
sg44
I163
sg120
I-105
sg46
I-105
sg47
I-105
sg49
I-105
sg50
I-105
sg51
I-105
sg52
I-105
sg53
I-105
sg130
I-105
sg57
I-105
sg58
I-105
sg59
I-105
sg60
I-105
sg61
I-105
sg62
I-105
sg63
I-105
sg65
I-105
ssI145
(dp276
g246
I165
ssI146
(dp277
g83
I62
sg84
I42
sg85
I60
sg86
I52
sg87
I61
sg88
I44
sg89
I45
sg90
I53
sg91
I46
sg92
I50
sg12
I17
sg93
I65
sg94
I66
sg95
I55
sg96
I48
sg11
I12
sg97
I57
sg98
I56
sg99
I64
ssI147
(dp278
S'SEMICOLON'
p279
I168
ssI148
(dp280
S'STRING'
p281
I169
sg249
I-35
ssI149
(dp282
g249
I-31
ssI150
(dp283
g253
I171
ssI151
(dp284
g83
I62
sg175
I172
sg85
I60
sg86
I52
sg87
I61
sg88
I44
sg89
I45
sg90
I53
sg91
I46
sg92
I50
sg12
I17
sg93
I65
sg84
I42
sg94
I66
sg95
I55
sg96
I48
sg11
I12
sg97
I57
sg98
I56
sg99
I64
ssI152
(dp285
g35
I-203
sg36
I-203
sg38
I-203
sg40
I-203
sg41
I-203
sg43
I-203
sg44
I-203
sg69
I-203
sg46
I-203
sg47
I-203
sg48
I-203
sg49
I-203
sg50
I-203
sg51
I-203
sg52
I-203
sg53
I-203
sg54
I-203
sg130
I-203
sg57
I-203
sg58
I-203
sg59
I-203
sg60
I-203
sg61
I-203
sg62
I-203
sg63
I-203
sg71
I-203
sg65
I-203
ssI153
(dp286
g35
I-209
sg36
I-209
sg38
I-209
sg145
I178
sg40
I-209
sg41
I-209
sg43
I-209
sg44
I-209
sg69
I-209
sg46
I-209
sg47
I-209
sg48
I-209
sg49
I-209
sg50
I-209
sg51
I-209
sg52
I-209
sg53
I-209
sg54
I-209
sg130
I-209
sg57
I-209
sg58
I-209
sg59
I-209
sg60
I-209
sg61
I-209
sg62
I-209
sg63
I-209
sg71
I-209
sg65
I-209
ssI154
(dp287
g41
I-178
sg64
I180
ssI155
(dp288
g37
I-174
sg39
I-174
sg41
I-174
sg71
I-174
ssI156
(dp289
g35
I-206
sg36
I-206
sg38
I-206
sg40
I-206
sg41
I-206
sg43
I-206
sg44
I-206
sg69
I-206
sg46
I-206
sg47
I-206
sg48
I-206
sg49
I-206
sg50
I-206
sg51
I-206
sg52
I-206
sg53
I-206
sg54
I-206
sg130
I-206
sg57
I-206
sg58
I-206
sg59
I-206
sg60
I-206
sg61
I-206
sg62
I-206
sg63
I-206
sg71
I-206
sg65
I-206
ssI157
(dp290
g265
I181
ssI158
(dp291
g84
I-66
sg175
I172
sg88
I-66
sg89
I-66
sg176
I183
sg96
I-66
sg177
I185
sg85
I-66
sg178
I187
sg91
I-66
sg92
I-66
sg179
I-57
sg12
I-66
sg180
I-66
sg86
I-66
sg90
I-66
sg181
I189
sg182
I193
sg183
I191
sg95
I-66
sg11
I-66
sg97
I-66
sg184
I194
sg185
I195
sg186
I-57
sg83
I-66
sg93
I-66
sg87
I-66
sg94
I-66
sg98
I-66
sg99
I-66
sg187
I197
ssI159
(dp292
g84
I-110
sg88
I-110
sg89
I-110
sg8
I1
sg96
I-110
sS'RPAREN'
p293
I-76
sg85
I-110
sg91
I-110
sg92
I-110
sg12
I-110
sg86
I-110
sg90
I-110
sg95
I-110
sg11
I-110
sg97
I-110
sg115
I-110
sg87
I-110
sg83
I-110
sg93
I-110
sg94
I-110
sg98
I-110
sg99
I-110
ssI160
(dp294
g271
I202
ssI161
(dp295
g15
I-222
sg17
I-222
ssI162
(dp296
g114
I-77
ssI163
(dp297
g35
I-104
sg36
I-104
sg38
I-104
sg40
I-104
sg43
I-104
sg120
I-104
sg46
I-104
sg47
I-104
sg49
I-104
sg50
I-104
sg51
I-104
sg52
I-104
sg53
I-104
sg130
I-104
sg57
I-104
sg58
I-104
sg59
I-104
sg60
I-104
sg61
I-104
sg62
I-104
sg63
I-104
sg65
I-104
ssI164
(dp298
g35
I203
sg36
I204
sg38
I205
sg40
I206
sg43
I207
sg120
I209
sg46
I210
sg47
I211
sg49
I212
sg50
I213
sg51
I214
sg52
I215
sg53
I216
sg130
I217
sg57
I218
sg58
I219
sg59
I220
sg60
I221
sg61
I222
sg62
I223
sg63
I224
sg65
I225
ssI165
(dp299
S'SEMICOLON'
p300
I226
ssI166
(dp301
S'IDENTIFIER'
p302
I227
ssI167
(dp303
g83
I-110
sg84
I-110
sg246
I-25
sg85
I-110
sg86
I-110
sg87
I-110
sg88
I-110
sg89
I-110
sg90
I-110
sg91
I-110
sg92
I-110
sg8
I1
sg12
I-110
sg93
I-110
sg94
I-110
sg95
I-110
sg96
I-110
sg11
I-110
sg97
I-110
sg98
I-110
sg99
I-110
ssI168
(dp304
g3
I-30
sg4
I-30
sg5
I-30
sg6
I-30
sg7
I-30
sg8
I-30
sg9
I-30
sg10
I-30
sg11
I-30
sg12
I-30
sg13
I-30
ssI169
(dp305
g251
I148
sg249
I-33
ssI170
(dp306
g249
I-32
ssI171
(dp307
S'SEMICOLON'
p308
I230
ssI172
(dp309
g98
I56
sg84
I42
sg85
I60
sg87
I61
sg83
I62
sg90
I53
sg91
I46
sg92
I50
sg93
I65
sg97
I57
sS'IDENTIFIER'
p310
I232
sg94
I66
ssI173
(dp311
g84
I-107
sg175
I-107
sg88
I-107
sg89
I-107
sg8
I-107
sg96
I-107
sg85
I-107
sg91
I-107
sg92
I-107
sg12
I-107
sg253
I-107
sg86
I-107
sg90
I-107
sg95
I-107
sg11
I-107
sg97
I-107
sg87
I-107
sg83
I-107
sg93
I-107
sg94
I-107
sg98
I-107
sg99
I-107
ssI174
(dp312
g84
I-106
sg175
I-106
sg88
I-106
sg89
I-106
sg8
I-106
sg96
I-106
sg85
I-106
sg91
I-106
sg92
I-106
sg12
I-106
sg253
I-106
sg86
I-106
sg90
I-106
sg95
I-106
sg11
I-106
sg97
I-106
sg87
I-106
sg83
I-106
sg93
I-106
sg94
I-106
sg98
I-106
sg99
I-106
ssI175
(dp313
S'IDENTIFIER'
p314
I234
ssI176
(dp315
g84
I-110
sg175
I-110
sg88
I-110
sg89
I-110
sg8
I1
sg96
I-110
sg85
I-110
sg91
I-110
sg92
I-110
sg12
I-110
sg253
I-38
sg86
I-110
sg90
I-110
sg95
I-110
sg11
I-110
sg97
I-110
sg87
I-110
sg83
I-110
sg93
I-110
sg94
I-110
sg98
I-110
sg99
I-110
ssI177
(dp316
g35
I-182
sg36
I-182
sg38
I-182
sg40
I-182
sg41
I-182
sg43
I-182
sg44
I-182
sg120
I-182
sg46
I-182
sg47
I-182
sg48
I-182
sg49
I-182
sg50
I-182
sg51
I-182
sg52
I-182
sg53
I-182
sg129
I-182
sg130
I-182
sg57
I-182
sg58
I-182
sg59
I-182
sg60
I-182
sg61
I-182
sg62
I-182
sg63
I-182
sg64
I-182
sg65
I-182
ssI178
(dp317
g35
I-208
sg36
I-208
sg38
I-208
sg40
I-208
sg41
I-208
sg43
I-208
sg44
I-208
sg69
I-208
sg46
I-208
sg47
I-208
sg48
I-208
sg49
I-208
sg50
I-208
sg51
I-208
sg52
I-208
sg53
I-208
sg54
I-208
sg130
I-208
sg57
I-208
sg58
I-208
sg59
I-208
sg60
I-208
sg61
I-208
sg62
I-208
sg63
I-208
sg71
I-208
sg65
I-208
ssI179
(dp318
g41
I236
ssI180
(dp319
g83
I62
sg84
I42
sg85
I60
sg86
I52
sg87
I61
sg88
I44
sg89
I45
sg90
I53
sg91
I46
sg92
I50
sg12
I17
sg93
I65
sg94
I66
sg95
I55
sg96
I48
sg11
I12
sg97
I57
sg98
I56
sg148
I102
ssI181
(dp320
S'SEMICOLON'
p321
I238
ssI182
(dp322
g84
I-110
sg175
I-110
sg88
I-110
sg89
I-110
sg8
I1
sg176
I-110
sg96
I-110
sg177
I-110
sg85
I-110
sg178
I-110
sg91
I-110
sg92
I-110
sg179
I-110
sg12
I-110
sg180
I-110
sg265
I-20
sg86
I-110
sg90
I-110
sg181
I-110
sg182
I-110
sg183
I-110
sg95
I-110
sg11
I-110
sg97
I-110
sg184
I-110
sg185
I-110
sg186
I-110
sg83
I-110
sg93
I-110
sg87
I-110
sg94
I-110
sg98
I-110
sg99
I-110
sg187
I-110
ssI183
(dp323
g84
I-61
sg88
I-61
sg89
I-61
sg96
I-61
sg85
I-61
sg91
I-61
sg92
I-61
sg179
I-61
sg12
I-61
sg180
I-61
sg86
I-61
sg90
I-61
sg95
I-61
sg11
I-61
sg97
I-61
sg186
I-61
sg83
I-61
sg93
I-61
sg87
I-61
sg94
I-61
sg98
I-61
sg99
I-61
ssI184
(dp324
g84
I-21
sg175
I-21
sg88
I-21
sg89
I-21
sg8
I-21
sg176
I-21
sg96
I-21
sg177
I-21
sg85
I-21
sg178
I-21
sg91
I-21
sg92
I-21
sg179
I-21
sg12
I-21
sg180
I-21
sg265
I-21
sg86
I-21
sg90
I-21
sg181
I-21
sg182
I-21
sg183
I-21
sg95
I-21
sg11
I-21
sg97
I-21
sg184
I-21
sg185
I-21
sg186
I-21
sg83
I-21
sg93
I-21
sg87
I-21
sg94
I-21
sg98
I-21
sg99
I-21
sg187
I-21
ssI185
(dp325
g84
I-68
sg180
I-68
sg89
I-68
sg96
I-68
sg177
I-68
sg85
I-68
sg178
I-68
sg91
I-68
sg92
I-68
sg12
I-68
sg88
I-68
sg86
I-68
sg90
I-68
sg182
I-68
sg183
I-68
sg95
I-68
sg11
I-68
sg97
I-68
sg87
I-68
sg83
I-68
sg93
I-68
sg94
I-68
sg98
I-68
sg99
I-68
sg187
I-68
ssI186
(dp326
g84
I-63
sg88
I-63
sg89
I-63
sg96
I-63
sg85
I-63
sg91
I-63
sg92
I-63
sg179
I241
sg12
I-63
sg180
I-63
sg86
I-63
sg90
I-63
sg95
I-63
sg11
I-63
sg97
I-63
sg186
I-55
sg83
I-63
sg93
I-63
sg87
I-63
sg94
I-63
sg98
I-63
sg99
I-63
ssI187
(dp327
g84
I-69
sg180
I-69
sg89
I-69
sg96
I-69
sg177
I-69
sg85
I-69
sg178
I-69
sg91
I-69
sg92
I-69
sg12
I-69
sg88
I-69
sg86
I-69
sg90
I-69
sg182
I-69
sg183
I-69
sg95
I-69
sg11
I-69
sg97
I-69
sg87
I-69
sg83
I-69
sg93
I-69
sg94
I-69
sg98
I-69
sg99
I-69
sg187
I-69
ssI188
(dp328
g84
I-22
sg175
I-22
sg88
I-22
sg89
I-22
sg8
I-22
sg176
I-22
sg96
I-22
sg177
I-22
sg85
I-22
sg178
I-22
sg91
I-22
sg92
I-22
sg179
I-22
sg12
I-22
sg180
I-22
sg265
I-22
sg86
I-22
sg90
I-22
sg181
I-22
sg182
I-22
sg183
I-22
sg95
I-22
sg11
I-22
sg97
I-22
sg184
I-22
sg185
I-22
sg186
I-22
sg83
I-22
sg93
I-22
sg87
I-22
sg94
I-22
sg98
I-22
sg99
I-22
sg187
I-22
ssI189
(dp329
g186
I-56
sg179
I-56
ssI190
(dp330
g83
I-64
sg84
I-64
sg85
I-64
sg86
I-64
sg87
I-64
sg88
I-64
sg89
I-64
sg90
I-64
sg91
I-64
sg92
I-64
sg99
I-64
sg12
I-64
sg93
I-64
sg94
I-64
sg95
I-64
sg96
I-64
sg11
I-64
sg97
I-64
sg98
I-64
sg180
I-64
ssI191
(dp331
g84
I-67
sg180
I-67
sg89
I-67
sg96
I-67
sg177
I-67
sg85
I-67
sg178
I-67
sg91
I-67
sg92
I-67
sg12
I-67
sg88
I-67
sg86
I-67
sg90
I-67
sg182
I-67
sg183
I-67
sg95
I-67
sg11
I-67
sg97
I-67
sg87
I-67
sg83
I-67
sg93
I-67
sg94
I-67
sg98
I-67
sg99
I-67
sg187
I-67
ssI192
(dp332
g186
I-55
sg179
I241
ssI193
(dp333
g84
I-71
sg180
I-71
sg89
I-71
sg96
I-71
sg177
I-71
sg85
I-71
sg178
I-71
sg91
I-71
sg92
I-71
sg12
I-71
sg88
I-71
sg86
I-71
sg90
I-71
sg182
I-71
sg183
I-71
sg95
I-71
sg11
I-71
sg97
I-71
sg87
I-71
sg83
I-71
sg93
I-71
sg94
I-71
sg98
I-71
sg99
I-71
sg187
I-71
ssI194
(dp334
g84
I-62
sg180
I-62
sg89
I-62
sg96
I-62
sg85
I-62
sg91
I-62
sg92
I-62
sg179
I-62
sg12
I-62
sg88
I-62
sg86
I-62
sg90
I-62
sg95
I-62
sg11
I-62
sg97
I-62
sS'SEMICOLON'
p335
I244
sg186
I-62
sg83
I-62
sg93
I-62
sg87
I-62
sg94
I-62
sg98
I-62
sg99
I-62
ssI195
(dp336
S'SEMICOLON'
p337
I245
ssI196
(dp338
g84
I-49
sg175
I-49
sg88
I-49
sg89
I-49
sg8
I-49
sg176
I-49
sg96
I-49
sg177
I-49
sg85
I-49
sg178
I-49
sg91
I-49
sg92
I-49
sg179
I-49
sg12
I-49
sg180
I-49
sg265
I-49
sg86
I-49
sg90
I-49
sg181
I-49
sg182
I-49
sg183
I-49
sg95
I-49
sg11
I-49
sg97
I-49
sg184
I-49
sg185
I-49
sg186
I-49
sg83
I-49
sg93
I-49
sg87
I-49
sg94
I-49
sg98
I-49
sg99
I-49
sg187
I-49
ssI197
(dp339
g84
I-70
sg180
I-70
sg89
I-70
sg96
I-70
sg177
I-70
sg85
I-70
sg178
I-70
sg91
I-70
sg92
I-70
sg12
I-70
sg88
I-70
sg86
I-70
sg90
I-70
sg182
I-70
sg183
I-70
sg95
I-70
sg11
I-70
sg97
I-70
sg87
I-70
sg83
I-70
sg93
I-70
sg94
I-70
sg98
I-70
sg99
I-70
sg187
I-70
ssI198
(dp340
g84
I-50
sg175
I-50
sg88
I-50
sg89
I-50
sg8
I-50
sg176
I-50
sg96
I-50
sg177
I-50
sg85
I-50
sg178
I-50
sg91
I-50
sg92
I-50
sg179
I-50
sg12
I-50
sg180
I-50
sg265
I-50
sg86
I-50
sg90
I-50
sg181
I-50
sg182
I-50
sg183
I-50
sg95
I-50
sg11
I-50
sg97
I-50
sg184
I-50
sg185
I-50
sg186
I-50
sg83
I-50
sg93
I-50
sg87
I-50
sg94
I-50
sg98
I-50
sg99
I-50
sg187
I-50
ssI199
(dp341
g83
I62
sg84
I42
sg85
I60
sg86
I52
sg87
I61
sg88
I44
sg89
I45
sg90
I53
sg91
I46
sg92
I50
sg99
I64
sg12
I17
sg93
I65
sg94
I66
sg95
I55
sg96
I48
sg11
I12
sg97
I57
sg98
I56
sg180
I137
ssI200
(dp342
g84
I-66
sg88
I-66
sg89
I-66
sg96
I-66
sg177
I185
sg85
I-66
sg178
I187
sg91
I-66
sg92
I-66
sg12
I-66
sg180
I-66
sg86
I-66
sg90
I-66
sg182
I193
sg183
I191
sg95
I-66
sg11
I-66
sg97
I-66
sg87
I-66
sg83
I-66
sg93
I-66
sg94
I-66
sg98
I-66
sg99
I-66
sg187
I197
ssI201
(dp343
g293
I249
ssI202
(dp344
S'SEMICOLON'
p345
I250
ssI203
(dp346
g114
I-88
sg194
I-88
sS'EQUALS'
p347
I-88
ssI204
(dp348
g114
I-83
sg194
I-83
sg347
I-83
ssI205
(dp349
g114
I-97
sg194
I-97
sg347
I-97
ssI206
(dp350
g114
I-96
sg194
I-96
sg347
I-96
ssI207
(dp351
g114
I-84
sg194
I-84
sg347
I-84
ssI208
(dp352
g114
I-28
sg194
I-28
sg347
I252
ssI209
(dp353
g114
I-80
sg194
I-80
sg347
I-80
ssI210
(dp354
g114
I-95
sg194
I-95
sg347
I-95
ssI211
(dp355
g114
I-100
sg194
I-100
sg347
I-100
ssI212
(dp356
g114
I-86
sg194
I-86
sg347
I-86
ssI213
(dp357
g114
I-87
sg194
I-87
sg347
I-87
ssI214
(dp358
g114
I-91
sg194
I-91
sg347
I-91
ssI215
(dp359
g114
I-93
sg194
I-93
sg347
I-93
ssI216
(dp360
g114
I-89
sg194
I-89
sg347
I-89
ssI217
(dp361
g114
I-90
sg194
I-90
sg347
I-90
ssI218
(dp362
g114
I-94
sg194
I-94
sg347
I-94
ssI219
(dp363
g114
I-98
sg194
I-98
sg347
I-98
ssI220
(dp364
g114
I-99
sg194
I-99
sg347
I-99
ssI221
(dp365
g114
I-81
sg194
I-81
sg347
I-81
ssI222
(dp366
g114
I-82
sg194
I-82
sg347
I-82
ssI223
(dp367
g114
I-92
sg194
I-92
sg347
I-92
ssI224
(dp368
g114
I-101
sg194
I-101
sg347
I-101
ssI225
(dp369
g114
I-85
sg194
I-85
sg347
I-85
ssI226
(dp370
g3
I-23
sg4
I-23
sg5
I-23
sg6
I-23
sg7
I-23
sg8
I-23
sg9
I-23
sg10
I-23
sg11
I-23
sg12
I-23
sg13
I-23
ssI227
(dp371
g347
I252
sS'SEMICOLON'
p372
I-28
ssI228
(dp373
g246
I-24
ssI229
(dp374
g249
I-34
ssI230
(dp375
g3
I-29
sg4
I-29
sg5
I-29
sg6
I-29
sg7
I-29
sg8
I-29
sg9
I-29
sg10
I-29
sg11
I-29
sg12
I-29
sg13
I-29
ssI231
(dp376
g146
I-209
sg145
I178
ssI232
(dp377
g146
I-209
sg145
I178
ssI233
(dp378
g146
I256
ssI234
(dp379
S'SEMICOLON'
p380
I257
ssI235
(dp381
g253
I-37
ssI236
(dp382
g35
I-172
sg36
I-172
sg37
I-172
sg38
I-172
sg39
I-172
sg40
I-172
sg41
I-172
sg43
I-172
sg44
I-172
sg302
I-172
sg46
I-172
sg47
I-172
sg48
I-172
sg49
I-172
sg50
I-172
sg51
I-172
sg52
I-172
sg53
I-172
sg129
I-172
sg130
I-172
sg57
I-172
sg58
I-172
sg59
I-172
sg60
I-172
sg61
I-172
sg62
I-172
sg63
I-172
sg64
I-172
sg65
I-172
ssI237
(dp383
g41
I-178
sg64
I180
ssI238
(dp384
g3
I-16
sg4
I-16
sg5
I-16
sg6
I-16
sg7
I-16
sg8
I-16
sg9
I-16
sg10
I-16
sg11
I-16
sg12
I-16
sg13
I-16
ssI239
(dp385
g265
I-19
ssI240
(dp386
g84
I-51
sg175
I-51
sg88
I-51
sg89
I-51
sg8
I-51
sg176
I-51
sg96
I-51
sg177
I-51
sg85
I-51
sg178
I-51
sg91
I-51
sg92
I-51
sg179
I-51
sg12
I-51
sg180
I-51
sg265
I-51
sg86
I-51
sg90
I-51
sg181
I-51
sg182
I-51
sg183
I-51
sg95
I-51
sg11
I-51
sg97
I-51
sg184
I-51
sg185
I-51
sg186
I-51
sg83
I-51
sg93
I-51
sg87
I-51
sg94
I-51
sg98
I-51
sg99
I-51
sg187
I-51
ssI241
(dp387
g186
I-54
ssI242
(dp388
g186
I259
ssI243
(dp389
g84
I-52
sg175
I-52
sg88
I-52
sg89
I-52
sg8
I-52
sg176
I-52
sg96
I-52
sg177
I-52
sg85
I-52
sg178
I-52
sg91
I-52
sg92
I-52
sg179
I-52
sg12
I-52
sg180
I-52
sg265
I-52
sg86
I-52
sg90
I-52
sg181
I-52
sg182
I-52
sg183
I-52
sg95
I-52
sg11
I-52
sg97
I-52
sg184
I-52
sg185
I-52
sg186
I-52
sg83
I-52
sg93
I-52
sg87
I-52
sg94
I-52
sg98
I-52
sg99
I-52
sg187
I-52
ssI244
(dp390
g84
I-59
sg175
I-59
sg88
I-59
sg89
I-59
sg8
I-59
sg176
I-59
sg96
I-59
sg177
I-59
sg85
I-59
sg178
I-59
sg91
I-59
sg92
I-59
sg179
I-59
sg12
I-59
sg180
I-59
sg265
I-59
sg86
I-59
sg90
I-59
sg181
I-59
sg182
I-59
sg183
I-59
sg95
I-59
sg11
I-59
sg97
I-59
sg184
I-59
sg185
I-59
sg186
I-59
sg83
I-59
sg93
I-59
sg87
I-59
sg94
I-59
sg98
I-59
sg99
I-59
sg187
I-59
ssI245
(dp391
g84
I-60
sg175
I-60
sg88
I-60
sg89
I-60
sg8
I-60
sg176
I-60
sg96
I-60
sg177
I-60
sg85
I-60
sg178
I-60
sg91
I-60
sg92
I-60
sg179
I-60
sg12
I-60
sg180
I-60
sg265
I-60
sg86
I-60
sg90
I-60
sg181
I-60
sg182
I-60
sg183
I-60
sg95
I-60
sg11
I-60
sg97
I-60
sg184
I-60
sg185
I-60
sg186
I-60
sg83
I-60
sg93
I-60
sg87
I-60
sg94
I-60
sg98
I-60
sg99
I-60
sg187
I-60
ssI246
(dp392
g84
I-58
sg175
I-58
sg88
I-58
sg89
I-58
sg8
I-58
sg176
I-58
sg96
I-58
sg177
I-58
sg85
I-58
sg178
I-58
sg91
I-58
sg92
I-58
sg179
I-58
sg12
I-58
sg180
I-58
sg265
I-58
sg86
I-58
sg90
I-58
sg181
I-58
sg182
I-58
sg183
I-58
sg95
I-58
sg11
I-58
sg97
I-58
sg184
I-58
sg185
I-58
sg186
I-58
sg83
I-58
sg93
I-58
sg87
I-58
sg94
I-58
sg98
I-58
sg99
I-58
sg187
I-58
ssI247
(dp393
g267
I261
sg129
I-74
ssI248
(dp394
g83
I-65
sg84
I-65
sg85
I-65
sg86
I-65
sg87
I-65
sg88
I-65
sg89
I-65
sg90
I-65
sg91
I-65
sg92
I-65
sg99
I-65
sg12
I-65
sg93
I-65
sg94
I-65
sg95
I-65
sg96
I-65
sg11
I-65
sg97
I-65
sg98
I-65
sg180
I-65
ssI249
(dp395
S'SEMICOLON'
p396
I262
ssI250
(dp397
g3
I-14
sg4
I-14
sg5
I-14
sg6
I-14
sg7
I-14
sg8
I-14
sg9
I-14
sg10
I-14
sg11
I-14
sg12
I-14
sg13
I-14
ssI251
(dp398
g237
I-79
sg194
I-79
ssI252
(dp399
S'FALSE'
p400
I264
sS'STRING'
p401
I265
sS'FLOATLITERAL'
p402
I267
sS'INTEGER'
p403
I268
sS'NULL'
p404
I263
sS'TRUE'
p405
I270
ssI253
(dp406
g372
I271
ssI254
(dp407
g146
I-185
ssI255
(dp408
g146
I-186
ssI256
(dp409
S'EQUALS'
p410
I272
ssI257
(dp411
g84
I-108
sg175
I-108
sg88
I-108
sg89
I-108
sg8
I-108
sg96
I-108
sg85
I-108
sg91
I-108
sg92
I-108
sg12
I-108
sg253
I-108
sg86
I-108
sg90
I-108
sg95
I-108
sg11
I-108
sg97
I-108
sg87
I-108
sg83
I-108
sg93
I-108
sg94
I-108
sg98
I-108
sg99
I-108
ssI258
(dp412
g41
I-177
ssI259
(dp413
g83
I62
sg84
I42
sg85
I60
sg86
I52
sg87
I61
sg88
I44
sg89
I45
sg90
I53
sg91
I46
sg92
I50
sg12
I17
sg93
I65
sg94
I66
sg95
I55
sg96
I48
sg11
I12
sg97
I57
sg98
I56
sg99
I64
ssI260
(dp414
g129
I274
ssI261
(dp415
g129
I-73
ssI262
(dp416
g3
I-36
sg4
I-36
sg5
I-36
sg6
I-36
sg7
I-36
sg8
I-36
sg9
I-36
sg10
I-36
sg11
I-36
sg12
I-36
sg13
I-36
ssI263
(dp417
g114
I-46
sg194
I-46
sS'SEMICOLON'
p418
I-46
ssI264
(dp419
g114
I-48
sg194
I-48
sg372
I-48
ssI265
(dp420
g114
I-45
sg194
I-45
sg418
I-45
ssI266
(dp421
g114
I-27
sg194
I-27
sg372
I-27
ssI267
(dp422
g114
I-44
sg194
I-44
sg418
I-44
ssI268
(dp423
g114
I-43
sg194
I-43
sg418
I-43
ssI269
(dp424
g114
I-42
sg194
I-42
sg418
I-42
ssI270
(dp425
g114
I-47
sg194
I-47
sg372
I-47
ssI271
(dp426
g83
I-26
sg84
I-26
sg246
I-26
sg85
I-26
sg86
I-26
sg87
I-26
sg88
I-26
sg89
I-26
sg90
I-26
sg91
I-26
sg92
I-26
sg8
I-26
sg12
I-26
sg93
I-26
sg94
I-26
sg95
I-26
sg96
I-26
sg11
I-26
sg97
I-26
sg98
I-26
sg99
I-26
ssI272
(dp427
g400
I264
sg401
I265
sg402
I267
sg403
I268
sg404
I263
sg405
I270
ssI273
(dp428
g45
I276
ssI274
(dp429
g84
I-110
sg88
I-110
sg89
I-110
sg8
I1
sg96
I-110
sg241
I-76
sg85
I-110
sg91
I-110
sg92
I-110
sg12
I-110
sg86
I-110
sg90
I-110
sg95
I-110
sg11
I-110
sg97
I-110
sg115
I-110
sg87
I-110
sg83
I-110
sg93
I-110
sg94
I-110
sg98
I-110
sg99
I-110
ssI275
(dp430
g418
I278
ssI276
(dp431
S'SEMICOLON'
p432
I279
ssI277
(dp433
g241
I280
ssI278
(dp434
g84
I-41
sg175
I-41
sg88
I-41
sg89
I-41
sg8
I-41
sg176
I-41
sg96
I-41
sg177
I-41
sg85
I-41
sg178
I-41
sg91
I-41
sg92
I-41
sg179
I-41
sg12
I-41
sg180
I-41
sg265
I-41
sg86
I-41
sg90
I-41
sg181
I-41
sg182
I-41
sg183
I-41
sg95
I-41
sg11
I-41
sg97
I-41
sg184
I-41
sg185
I-41
sg186
I-41
sg83
I-41
sg93
I-41
sg87
I-41
sg94
I-41
sg98
I-41
sg99
I-41
sg187
I-41
ssI279
(dp435
g84
I-53
sg175
I-53
sg88
I-53
sg89
I-53
sg8
I-53
sg176
I-53
sg96
I-53
sg177
I-53
sg85
I-53
sg178
I-53
sg91
I-53
sg92
I-53
sg179
I-53
sg12
I-53
sg180
I-53
sg265
I-53
sg86
I-53
sg90
I-53
sg181
I-53
sg182
I-53
sg183
I-53
sg95
I-53
sg11
I-53
sg97
I-53
sg184
I-53
sg185
I-53
sg186
I-53
sg83
I-53
sg93
I-53
sg87
I-53
sg94
I-53
sg98
I-53
sg99
I-53
sg187
I-53
ssI280
(dp436
S'SEMICOLON'
p437
I281
ssI281
(dp438
g84
I-72
sg175
I-72
sg88
I-72
sg89
I-72
sg8
I-72
sg176
I-72
sg96
I-72
sg177
I-72
sg85
I-72
sg178
I-72
sg91
I-72
sg92
I-72
sg179
I-72
sg12
I-72
sg180
I-72
sg265
I-72
sg86
I-72
sg90
I-72
sg181
I-72
sg182
I-72
sg183
I-72
sg95
I-72
sg11
I-72
sg97
I-72
sg184
I-72
sg185
I-72
sg186
I-72
sg83
I-72
sg93
I-72
sg87
I-72
sg94
I-72
sg98
I-72
sg99
I-72
sg187
I-72
ss.(dp1
I0
(dp2
S'Definitions'
p3
I3
sS'ExtendedAttributeList'
p4
I2
ssI1
(dp5
S'ExtendedAttribute'
p6
I4
sS'ExtendedAttributeNoArgs'
p7
I8
sS'ExtendedAttributeIdent'
p8
I7
sS'ExtendedAttributeNamedArgList'
p9
I5
sS'ExtendedAttributeArgList'
p10
I6
ssI2
(dp11
S'Definition'
p12
I18
sS'Typedef'
p13
I10
sS'RelativeScopedName'
p14
I27
sS'Dictionary'
p15
I13
sS'CallbackOrInterface'
p16
I11
sS'Enum'
p17
I15
sS'Exception'
p18
I19
sS'AbsoluteScopedName'
p19
I14
sS'Interface'
p20
I16
sS'ScopedName'
p21
I30
sS'PartialInterface'
p22
I23
sS'ImplementsStatement'
p23
I24
ssI3
(dp24
sI4
(dp25
S'ExtendedAttributes'
p26
I31
ssI5
(dp27
sI6
(dp28
sI7
(dp29
sI8
(dp30
sI9
(dp31
sI10
(dp32
sI11
(dp33
sI12
(dp34
sI13
(dp35
sI14
(dp36
sI15
(dp37
sI16
(dp38
sI17
(dp39
S'ScopedNameParts'
p40
I37
ssI18
(dp41
S'Definitions'
p42
I38
sg4
I2
ssI19
(dp43
sI20
(dp44
sI21
(dp45
sI22
(dp46
sI23
(dp47
sI24
(dp48
sI25
(dp49
S'NonAnyType'
p50
I51
sS'PrimitiveOrStringType'
p51
I43
sg19
I14
sS'UnionType'
p52
I58
sg14
I27
sS'UnsignedIntegerType'
p53
I63
sS'IntegerType'
p54
I54
sS'SingleType'
p55
I47
sS'ScopedName'
p56
I59
sS'Type'
p57
I49
ssI26
(dp58
sI27
(dp59
sI28
(dp60
S'Interface'
p61
I70
sS'CallbackRestOrInterface'
p62
I68
sS'CallbackRest'
p63
I69
ssI29
(dp64
sI30
(dp65
sI31
(dp66
sI32
(dp67
S'ExtendedAttribute'
p68
I75
sg7
I8
sg8
I7
sg9
I5
sg10
I6
ssI33
(dp69
sI34
(dp70
S'ArgumentList'
p71
I78
sS'ExtendedAttributeList'
p72
I80
sS'Argument'
p73
I79
ssI35
(dp74
S'ScopedNameParts'
p75
I81
ssI36
(dp76
sI37
(dp77
sI38
(dp78
sI39
(dp79
S'Inheritance'
p80
I83
ssI40
(dp81
sI41
(dp82
S'Inheritance'
p83
I86
ssI42
(dp84
sI43
(dp85
S'TypeSuffix'
p86
I88
ssI44
(dp87
S'TypeSuffix'
p88
I90
ssI45
(dp89
S'TypeSuffix'
p90
I91
ssI46
(dp91
g54
I92
ssI47
(dp92
sI48
(dp93
S'TypeSuffix'
p94
I93
ssI49
(dp95
sI50
(dp96
S'OptionalLong'
p97
I95
ssI51
(dp98
sI52
(dp99
sI53
(dp100
sI54
(dp101
sI55
(dp102
S'NonAnyType'
p103
I100
sg51
I43
sg19
I14
sg14
I27
sS'UnionMemberTypeArrayOfAny'
p104
I98
sg53
I63
sS'UnionMemberType'
p105
I99
sg54
I54
sg56
I59
sS'UnionType'
p106
I101
ssI56
(dp107
sI57
(dp108
sI58
(dp109
S'TypeSuffix'
p110
I103
ssI59
(dp111
S'TypeSuffix'
p112
I104
ssI60
(dp113
sI61
(dp114
sI62
(dp115
sI63
(dp116
sI64
(dp117
S'TypeSuffixStartingWithArray'
p118
I106
ssI65
(dp119
sI66
(dp120
sI67
(dp121
sI68
(dp122
sI69
(dp123
sI70
(dp124
sI71
(dp125
sI72
(dp126
S'Inheritance'
p127
I112
ssI73
(dp128
g19
I14
sg21
I113
sg14
I27
ssI74
(dp129
sI75
(dp130
S'ExtendedAttributes'
p131
I114
ssI76
(dp132
sI77
(dp133
sI78
(dp134
sI79
(dp135
S'Arguments'
p136
I118
ssI80
(dp137
S'Optional'
p138
I120
ssI81
(dp139
sI82
(dp140
S'ScopedNameParts'
p141
I121
ssI83
(dp142
sI84
(dp143
g19
I14
sS'ScopedName'
p144
I123
sg14
I27
ssI85
(dp145
S'EnumValueList'
p146
I124
ssI86
(dp147
sI87
(dp148
sI88
(dp149
sI89
(dp150
S'TypeSuffixStartingWithArray'
p151
I128
ssI90
(dp152
sI91
(dp153
sI92
(dp154
sI93
(dp155
sI94
(dp156
sI95
(dp157
sI96
(dp158
sI97
(dp159
g50
I51
sg51
I43
sg19
I14
sg52
I58
sg14
I27
sg53
I63
sg54
I54
sg55
I47
sg56
I59
sS'Type'
p160
I130
ssI98
(dp161
S'TypeSuffix'
p162
I131
ssI99
(dp163
sI100
(dp164
sI101
(dp165
S'TypeSuffix'
p166
I133
ssI102
(dp167
sI103
(dp168
sI104
(dp169
sI105
(dp170
sI106
(dp171
sI107
(dp172
sI108
(dp173
sI109
(dp174
sI110
(dp175
g50
I51
sg51
I43
sg19
I14
sS'Type'
p176
I138
sg14
I27
sg53
I63
sg54
I54
sg55
I47
sS'ReturnType'
p177
I139
sg56
I59
sg52
I58
ssI111
(dp178
sI112
(dp179
sI113
(dp180
sI114
(dp181
sI115
(dp182
S'ArgumentList'
p183
I142
sg72
I80
sg73
I79
ssI116
(dp184
sI117
(dp185
g72
I80
sS'Argument'
p186
I143
ssI118
(dp187
sI119
(dp188
sI120
(dp189
g50
I51
sg51
I43
sg19
I14
sS'Type'
p190
I144
sg14
I27
sg53
I63
sg54
I54
sg55
I47
sg56
I59
sg52
I58
ssI121
(dp191
sI122
(dp192
S'ExtendedAttributeList'
p193
I146
sS'DictionaryMembers'
p194
I145
ssI123
(dp195
sI124
(dp196
sI125
(dp197
S'EnumValueListComma'
p198
I149
ssI126
(dp199
S'ExtendedAttributeList'
p200
I151
sS'ExceptionMembers'
p201
I150
ssI127
(dp202
S'TypeSuffix'
p203
I152
ssI128
(dp204
sI129
(dp205
sI130
(dp206
sI131
(dp207
sI132
(dp208
g103
I100
sg51
I43
sg19
I14
sg14
I27
sg104
I98
sg53
I63
sg105
I154
sg54
I54
sg56
I59
sg106
I101
ssI133
(dp209
sI134
(dp210
sI135
(dp211
S'TypeSuffix'
p212
I156
ssI136
(dp213
S'InterfaceMembers'
p214
I157
sS'ExtendedAttributeList'
p215
I158
ssI137
(dp216
sI138
(dp217
sI139
(dp218
sI140
(dp219
S'InterfaceMembers'
p220
I160
sg215
I158
ssI141
(dp221
sI142
(dp222
sI143
(dp223
S'Arguments'
p224
I162
ssI144
(dp225
S'Ellipsis'
p226
I164
ssI145
(dp227
sI146
(dp228
g50
I51
sg51
I43
sg19
I14
sS'Type'
p229
I166
sg14
I27
sg53
I63
sS'DictionaryMember'
p230
I167
sg54
I54
sg55
I47
sg56
I59
sg52
I58
ssI147
(dp231
sI148
(dp232
S'EnumValueListString'
p233
I170
ssI149
(dp234
sI150
(dp235
sI151
(dp236
g50
I51
sS'Const'
p237
I174
sg51
I43
sg19
I14
sg52
I58
sS'ExceptionMember'
p238
I176
sg14
I27
sg53
I63
sg54
I54
sg55
I47
sS'ExceptionField'
p239
I173
sg56
I59
sS'Type'
p240
I175
ssI152
(dp241
sI153
(dp242
S'Null'
p243
I177
ssI154
(dp244
S'UnionMemberTypes'
p245
I179
ssI155
(dp246
sI156
(dp247
sI157
(dp248
sI158
(dp249
S'InterfaceMember'
p250
I182
sS'Qualifier'
p251
I186
sS'Attribute'
p252
I196
sS'Inherit'
p253
I192
sS'Specials'
p254
I190
sS'AttributeOrOperation'
p255
I188
sS'Const'
p256
I184
sS'Operation'
p257
I198
sS'Qualifiers'
p258
I199
sS'Special'
p259
I200
ssI159
(dp260
S'ArgumentList'
p261
I201
sg72
I80
sg73
I79
ssI160
(dp262
sI161
(dp263
sI162
(dp264
sI163
(dp265
sI164
(dp266
S'ArgumentName'
p267
I208
ssI165
(dp268
sI166
(dp269
sI167
(dp270
g193
I146
sS'DictionaryMembers'
p271
I228
ssI168
(dp272
sI169
(dp273
S'EnumValueListComma'
p274
I229
ssI170
(dp275
sI171
(dp276
sI172
(dp277
S'ConstType'
p278
I233
sg53
I63
sS'PrimitiveOrStringType'
p279
I231
sg54
I54
ssI173
(dp280
sI174
(dp281
sI175
(dp282
sI176
(dp283
g200
I151
sS'ExceptionMembers'
p284
I235
ssI177
(dp285
sI178
(dp286
sI179
(dp287
sI180
(dp288
g103
I100
sg51
I43
sg19
I14
sg14
I27
sg104
I98
sg53
I63
sS'UnionMemberType'
p289
I237
sg54
I54
sg56
I59
sg106
I101
ssI181
(dp290
sI182
(dp291
S'InterfaceMembers'
p292
I239
sg215
I158
ssI183
(dp293
sI184
(dp294
sI185
(dp295
sI186
(dp296
S'ReadOnly'
p297
I242
sS'AttributeRest'
p298
I240
ssI187
(dp299
sI188
(dp300
sI189
(dp301
sI190
(dp302
sI191
(dp303
sI192
(dp304
g297
I242
sS'AttributeRest'
p305
I243
ssI193
(dp306
sI194
(dp307
sI195
(dp308
sI196
(dp309
sI197
(dp310
sI198
(dp311
sI199
(dp312
g50
I51
sS'OperationRest'
p313
I246
sg51
I43
sg19
I14
sg52
I58
sg14
I27
sg53
I63
sg54
I54
sg55
I47
sS'ReturnType'
p314
I247
sg56
I59
sg176
I138
ssI200
(dp315
S'Specials'
p316
I248
sg259
I200
ssI201
(dp317
sI202
(dp318
sI203
(dp319
sI204
(dp320
sI205
(dp321
sI206
(dp322
sI207
(dp323
sI208
(dp324
S'DefaultValue'
p325
I251
ssI209
(dp326
sI210
(dp327
sI211
(dp328
sI212
(dp329
sI213
(dp330
sI214
(dp331
sI215
(dp332
sI216
(dp333
sI217
(dp334
sI218
(dp335
sI219
(dp336
sI220
(dp337
sI221
(dp338
sI222
(dp339
sI223
(dp340
sI224
(dp341
sI225
(dp342
sI226
(dp343
sI227
(dp344
S'DefaultValue'
p345
I253
ssI228
(dp346
sI229
(dp347
sI230
(dp348
sI231
(dp349
S'Null'
p350
I254
ssI232
(dp351
S'Null'
p352
I255
ssI233
(dp353
sI234
(dp354
sI235
(dp355
sI236
(dp356
sI237
(dp357
S'UnionMemberTypes'
p358
I258
ssI238
(dp359
sI239
(dp360
sI240
(dp361
sI241
(dp362
sI242
(dp363
sI243
(dp364
sI244
(dp365
sI245
(dp366
sI246
(dp367
sI247
(dp368
S'OptionalIdentifier'
p369
I260
ssI248
(dp370
sI249
(dp371
sI250
(dp372
sI251
(dp373
sI252
(dp374
S'ConstValue'
p375
I266
sS'BooleanLiteral'
p376
I269
ssI253
(dp377
sI254
(dp378
sI255
(dp379
sI256
(dp380
sI257
(dp381
sI258
(dp382
sI259
(dp383
g50
I51
sg51
I43
sg19
I14
sg52
I58
sg14
I27
sg53
I63
sg54
I54
sg55
I47
sg56
I59
sS'Type'
p384
I273
ssI260
(dp385
sI261
(dp386
sI262
(dp387
sI263
(dp388
sI264
(dp389
sI265
(dp390
sI266
(dp391
sI267
(dp392
sI268
(dp393
sI269
(dp394
sI270
(dp395
sI271
(dp396
sI272
(dp397
S'ConstValue'
p398
I275
sg376
I269
ssI273
(dp399
sI274
(dp400
S'ArgumentList'
p401
I277
sg72
I80
sg73
I79
ssI275
(dp402
sI276
(dp403
sI277
(dp404
sI278
(dp405
sI279
(dp406
sI280
(dp407
sI281
(dp408
s.(lp1
(S"S' -> Definitions"
p2
S"S'"
p3
I1
NNNtp4
a(S'Definitions -> ExtendedAttributeList Definition Definitions'
p5
S'Definitions'
p6
I3
S'p_Definitions'
p7
S'/Users/mauriziobasso/Documents/javascript/emsdk/emscripten/incoming/third_party/WebIDL.py'
p8
I3685
tp9
a(S'Definitions -> <empty>'
p10
S'Definitions'
p11
I0
S'p_DefinitionsEmpty'
p12
S'/Users/mauriziobasso/Documents/javascript/emsdk/emscripten/incoming/third_party/WebIDL.py'
p13
I3698
tp14
a(S'Definition -> CallbackOrInterface'
p15
S'Definition'
p16
I1
S'p_Definition'
p17
S'/Users/mauriziobasso/Documents/javascript/emsdk/emscripten/incoming/third_party/WebIDL.py'
p18
I3704
tp19
a(S'Definition -> PartialInterface'
p20
g16
I1
g17
g18
I3705
tp21
a(S'Definition -> Dictionary'
p22
g16
I1
g17
g18
I3706
tp23
a(S'Definition -> Exception'
p24
g16
I1
g17
g18
I3707
tp25
a(S'Definition -> Enum'
p26
g16
I1
g17
g18
I3708
tp27
a(S'Definition -> Typedef'
p28
g16
I1
g17
g18
I3709
tp29
a(S'Definition -> ImplementsStatement'
p30
g16
I1
g17
g18
I3710
tp31
a(S'CallbackOrInterface -> CALLBACK CallbackRestOrInterface'
p32
S'CallbackOrInterface'
p33
I2
S'p_CallbackOrInterfaceCallback'
p34
S'/Users/mauriziobasso/Documents/javascript/emsdk/emscripten/incoming/third_party/WebIDL.py'
p35
I3717
tp36
a(S'CallbackOrInterface -> Interface'
p37
S'CallbackOrInterface'
p38
I1
S'p_CallbackOrInterfaceInterface'
p39
S'/Users/mauriziobasso/Documents/javascript/emsdk/emscripten/incoming/third_party/WebIDL.py'
p40
I3727
tp41
a(S'CallbackRestOrInterface -> CallbackRest'
p42
S'CallbackRestOrInterface'
p43
I1
S'p_CallbackRestOrInterface'
p44
S'/Users/mauriziobasso/Documents/javascript/emsdk/emscripten/incoming/third_party/WebIDL.py'
p45
I3733
tp46
a(S'CallbackRestOrInterface -> Interface'
p47
g43
I1
g44
g45
I3734
tp48
a(S'Interface -> INTERFACE IDENTIFIER Inheritance LBRACE InterfaceMembers RBRACE SEMICOLON'
p49
S'Interface'
p50
I7
S'p_Interface'
p51
S'/Users/mauriziobasso/Documents/javascript/emsdk/emscripten/incoming/third_party/WebIDL.py'
p52
I3741
tp53
a(S'Interface -> INTERFACE IDENTIFIER SEMICOLON'
p54
S'Interface'
p55
I3
S'p_InterfaceForwardDecl'
p56
S'/Users/mauriziobasso/Documents/javascript/emsdk/emscripten/incoming/third_party/WebIDL.py'
p57
I3767
tp58
a(S'PartialInterface -> PARTIAL INTERFACE IDENTIFIER LBRACE InterfaceMembers RBRACE SEMICOLON'
p59
S'PartialInterface'
p60
I7
S'p_PartialInterface'
p61
S'/Users/mauriziobasso/Documents/javascript/emsdk/emscripten/incoming/third_party/WebIDL.py'
p62
I3790
tp63
a(S'Inheritance -> COLON ScopedName'
p64
S'Inheritance'
p65
I2
S'p_Inheritance'
p66
S'/Users/mauriziobasso/Documents/javascript/emsdk/emscripten/incoming/third_party/WebIDL.py'
p67
I3819
tp68
a(S'Inheritance -> <empty>'
p69
S'Inheritance'
p70
I0
S'p_InheritanceEmpty'
p71
S'/Users/mauriziobasso/Documents/javascript/emsdk/emscripten/incoming/third_party/WebIDL.py'
p72
I3825
tp73
a(S'InterfaceMembers -> ExtendedAttributeList InterfaceMember InterfaceMembers'
p74
S'InterfaceMembers'
p75
I3
S'p_InterfaceMembers'
p76
S'/Users/mauriziobasso/Documents/javascript/emsdk/emscripten/incoming/third_party/WebIDL.py'
p77
I3831
tp78
a(S'InterfaceMembers -> <empty>'
p79
S'InterfaceMembers'
p80
I0
S'p_InterfaceMembersEmpty'
p81
S'/Users/mauriziobasso/Documents/javascript/emsdk/emscripten/incoming/third_party/WebIDL.py'
p82
I3842
tp83
a(S'InterfaceMember -> Const'
p84
S'InterfaceMember'
p85
I1
S'p_InterfaceMember'
p86
S'/Users/mauriziobasso/Documents/javascript/emsdk/emscripten/incoming/third_party/WebIDL.py'
p87
I3848
tp88
a(S'InterfaceMember -> AttributeOrOperation'
p89
g85
I1
g86
g87
I3849
tp90
a(S'Dictionary -> DICTIONARY IDENTIFIER Inheritance LBRACE DictionaryMembers RBRACE SEMICOLON'
p91
S'Dictionary'
p92
I7
S'p_Dictionary'
p93
S'/Users/mauriziobasso/Documents/javascript/emsdk/emscripten/incoming/third_party/WebIDL.py'
p94
I3855
tp95
a(S'DictionaryMembers -> ExtendedAttributeList DictionaryMember DictionaryMembers'
p96
S'DictionaryMembers'
p97
I3
S'p_DictionaryMembers'
p98
S'/Users/mauriziobasso/Documents/javascript/emsdk/emscripten/incoming/third_party/WebIDL.py'
p99
I3864
tp100
a(S'DictionaryMembers -> <empty>'
p101
g97
I0
g98
g99
I3865
tp102
a(S'DictionaryMember -> Type IDENTIFIER DefaultValue SEMICOLON'
p103
S'DictionaryMember'
p104
I4
S'p_DictionaryMember'
p105
S'/Users/mauriziobasso/Documents/javascript/emsdk/emscripten/incoming/third_party/WebIDL.py'
p106
I3878
tp107
a(S'DefaultValue -> EQUALS ConstValue'
p108
S'DefaultValue'
p109
I2
S'p_DefaultValue'
p110
S'/Users/mauriziobasso/Documents/javascript/emsdk/emscripten/incoming/third_party/WebIDL.py'
p111
I3892
tp112
a(S'DefaultValue -> <empty>'
p113
g109
I0
g110
g111
I3893
tp114
a(S'Exception -> EXCEPTION IDENTIFIER Inheritance LBRACE ExceptionMembers RBRACE SEMICOLON'
p115
S'Exception'
p116
I7
S'p_Exception'
p117
S'/Users/mauriziobasso/Documents/javascript/emsdk/emscripten/incoming/third_party/WebIDL.py'
p118
I3902
tp119
a(S'Enum -> ENUM IDENTIFIER LBRACE EnumValueList RBRACE SEMICOLON'
p120
S'Enum'
p121
I6
S'p_Enum'
p122
S'/Users/mauriziobasso/Documents/javascript/emsdk/emscripten/incoming/third_party/WebIDL.py'
p123
I3908
tp124
a(S'EnumValueList -> STRING EnumValueListComma'
p125
S'EnumValueList'
p126
I2
S'p_EnumValueList'
p127
S'/Users/mauriziobasso/Documents/javascript/emsdk/emscripten/incoming/third_party/WebIDL.py'
p128
I3919
tp129
a(S'EnumValueListComma -> COMMA EnumValueListString'
p130
S'EnumValueListComma'
p131
I2
S'p_EnumValueListComma'
p132
S'/Users/mauriziobasso/Documents/javascript/emsdk/emscripten/incoming/third_party/WebIDL.py'
p133
I3926
tp134
a(S'EnumValueListComma -> <empty>'
p135
S'EnumValueListComma'
p136
I0
S'p_EnumValueListCommaEmpty'
p137
S'/Users/mauriziobasso/Documents/javascript/emsdk/emscripten/incoming/third_party/WebIDL.py'
p138
I3932
tp139
a(S'EnumValueListString -> STRING EnumValueListComma'
p140
S'EnumValueListString'
p141
I2
S'p_EnumValueListString'
p142
S'/Users/mauriziobasso/Documents/javascript/emsdk/emscripten/incoming/third_party/WebIDL.py'
p143
I3938
tp144
a(S'EnumValueListString -> <empty>'
p145
S'EnumValueListString'
p146
I0
S'p_EnumValueListStringEmpty'
p147
S'/Users/mauriziobasso/Documents/javascript/emsdk/emscripten/incoming/third_party/WebIDL.py'
p148
I3945
tp149
a(S'CallbackRest -> IDENTIFIER EQUALS ReturnType LPAREN ArgumentList RPAREN SEMICOLON'
p150
S'CallbackRest'
p151
I7
S'p_CallbackRest'
p152
S'/Users/mauriziobasso/Documents/javascript/emsdk/emscripten/incoming/third_party/WebIDL.py'
p153
I3951
tp154
a(S'ExceptionMembers -> ExtendedAttributeList ExceptionMember ExceptionMembers'
p155
S'ExceptionMembers'
p156
I3
S'p_ExceptionMembers'
p157
S'/Users/mauriziobasso/Documents/javascript/emsdk/emscripten/incoming/third_party/WebIDL.py'
p158
I3959
tp159
a(S'ExceptionMembers -> <empty>'
p160
g156
I0
g157
g158
I3960
tp161
a(S'Typedef -> TYPEDEF Type IDENTIFIER SEMICOLON'
p162
S'Typedef'
p163
I4
S'p_Typedef'
p164
S'/Users/mauriziobasso/Documents/javascript/emsdk/emscripten/incoming/third_party/WebIDL.py'
p165
I3966
tp166
a(S'ImplementsStatement -> ScopedName IMPLEMENTS ScopedName SEMICOLON'
p167
S'ImplementsStatement'
p168
I4
S'p_ImplementsStatement'
p169
S'/Users/mauriziobasso/Documents/javascript/emsdk/emscripten/incoming/third_party/WebIDL.py'
p170
I3974
tp171
a(S'Const -> CONST ConstType IDENTIFIER EQUALS ConstValue SEMICOLON'
p172
S'Const'
p173
I6
S'p_Const'
p174
S'/Users/mauriziobasso/Documents/javascript/emsdk/emscripten/incoming/third_party/WebIDL.py'
p175
I3984
tp176
a(S'ConstValue -> BooleanLiteral'
p177
S'ConstValue'
p178
I1
S'p_ConstValueBoolean'
p179
S'/Users/mauriziobasso/Documents/javascript/emsdk/emscripten/incoming/third_party/WebIDL.py'
p180
I3994
tp181
a(S'ConstValue -> INTEGER'
p182
S'ConstValue'
p183
I1
S'p_ConstValueInteger'
p184
S'/Users/mauriziobasso/Documents/javascript/emsdk/emscripten/incoming/third_party/WebIDL.py'
p185
I4002
tp186
a(S'ConstValue -> FLOATLITERAL'
p187
S'ConstValue'
p188
I1
S'p_ConstValueFloat'
p189
S'/Users/mauriziobasso/Documents/javascript/emsdk/emscripten/incoming/third_party/WebIDL.py'
p190
I4016
tp191
a(S'ConstValue -> STRING'
p192
S'ConstValue'
p193
I1
S'p_ConstValueString'
p194
S'/Users/mauriziobasso/Documents/javascript/emsdk/emscripten/incoming/third_party/WebIDL.py'
p195
I4023
tp196
a(S'ConstValue -> NULL'
p197
S'ConstValue'
p198
I1
S'p_ConstValueNull'
p199
S'/Users/mauriziobasso/Documents/javascript/emsdk/emscripten/incoming/third_party/WebIDL.py'
p200
I4031
tp201
a(S'BooleanLiteral -> TRUE'
p202
S'BooleanLiteral'
p203
I1
S'p_BooleanLiteralTrue'
p204
S'/Users/mauriziobasso/Documents/javascript/emsdk/emscripten/incoming/third_party/WebIDL.py'
p205
I4037
tp206
a(S'BooleanLiteral -> FALSE'
p207
S'BooleanLiteral'
p208
I1
S'p_BooleanLiteralFalse'
p209
S'/Users/mauriziobasso/Documents/javascript/emsdk/emscripten/incoming/third_party/WebIDL.py'
p210
I4043
tp211
a(S'AttributeOrOperation -> Attribute'
p212
S'AttributeOrOperation'
p213
I1
S'p_AttributeOrOperation'
p214
S'/Users/mauriziobasso/Documents/javascript/emsdk/emscripten/incoming/third_party/WebIDL.py'
p215
I4049
tp216
a(S'AttributeOrOperation -> Operation'
p217
g213
I1
g214
g215
I4050
tp218
a(S'Attribute -> Qualifier AttributeRest'
p219
S'Attribute'
p220
I2
S'p_AttributeWithQualifier'
p221
S'/Users/mauriziobasso/Documents/javascript/emsdk/emscripten/incoming/third_party/WebIDL.py'
p222
I4056
tp223
a(S'Attribute -> Inherit AttributeRest'
p224
S'Attribute'
p225
I2
S'p_Attribute'
p226
S'/Users/mauriziobasso/Documents/javascript/emsdk/emscripten/incoming/third_party/WebIDL.py'
p227
I4066
tp228
a(S'AttributeRest -> ReadOnly ATTRIBUTE Type IDENTIFIER SEMICOLON'
p229
S'AttributeRest'
p230
I5
S'p_AttributeRest'
p231
S'/Users/mauriziobasso/Documents/javascript/emsdk/emscripten/incoming/third_party/WebIDL.py'
p232
I4073
tp233
a(S'ReadOnly -> READONLY'
p234
S'ReadOnly'
p235
I1
S'p_ReadOnly'
p236
S'/Users/mauriziobasso/Documents/javascript/emsdk/emscripten/incoming/third_party/WebIDL.py'
p237
I4083
tp238
a(S'ReadOnly -> <empty>'
p239
S'ReadOnly'
p240
I0
S'p_ReadOnlyEmpty'
p241
S'/Users/mauriziobasso/Documents/javascript/emsdk/emscripten/incoming/third_party/WebIDL.py'
p242
I4089
tp243
a(S'Inherit -> INHERIT'
p244
S'Inherit'
p245
I1
S'p_Inherit'
p246
S'/Users/mauriziobasso/Documents/javascript/emsdk/emscripten/incoming/third_party/WebIDL.py'
p247
I4095
tp248
a(S'Inherit -> <empty>'
p249
S'Inherit'
p250
I0
S'p_InheritEmpty'
p251
S'/Users/mauriziobasso/Documents/javascript/emsdk/emscripten/incoming/third_party/WebIDL.py'
p252
I4101
tp253
a(S'Operation -> Qualifiers OperationRest'
p254
S'Operation'
p255
I2
S'p_Operation'
p256
S'/Users/mauriziobasso/Documents/javascript/emsdk/emscripten/incoming/third_party/WebIDL.py'
p257
I4107
tp258
a(S'Operation -> STRINGIFIER SEMICOLON'
p259
S'Operation'
p260
I2
S'p_Stringifier'
p261
S'/Users/mauriziobasso/Documents/javascript/emsdk/emscripten/incoming/third_party/WebIDL.py'
p262
I4225
tp263
a(S'Operation -> JSONIFIER SEMICOLON'
p264
S'Operation'
p265
I2
S'p_Jsonifier'
p266
S'/Users/mauriziobasso/Documents/javascript/emsdk/emscripten/incoming/third_party/WebIDL.py'
p267
I4239
tp268
a(S'Qualifier -> STATIC'
p269
S'Qualifier'
p270
I1
S'p_QualifierStatic'
p271
S'/Users/mauriziobasso/Documents/javascript/emsdk/emscripten/incoming/third_party/WebIDL.py'
p272
I4252
tp273
a(S'Qualifier -> STRINGIFIER'
p274
S'Qualifier'
p275
I1
S'p_QualifierStringifier'
p276
S'/Users/mauriziobasso/Documents/javascript/emsdk/emscripten/incoming/third_party/WebIDL.py'
p277
I4258
tp278
a(S'Qualifiers -> Qualifier'
p279
S'Qualifiers'
p280
I1
S'p_Qualifiers'
p281
S'/Users/mauriziobasso/Documents/javascript/emsdk/emscripten/incoming/third_party/WebIDL.py'
p282
I4264
tp283
a(S'Qualifiers -> Specials'
p284
g280
I1
g281
g282
I4265
tp285
a(S'Specials -> Special Specials'
p286
S'Specials'
p287
I2
S'p_Specials'
p288
S'/Users/mauriziobasso/Documents/javascript/emsdk/emscripten/incoming/third_party/WebIDL.py'
p289
I4271
tp290
a(S'Specials -> <empty>'
p291
S'Specials'
p292
I0
S'p_SpecialsEmpty'
p293
S'/Users/mauriziobasso/Documents/javascript/emsdk/emscripten/incoming/third_party/WebIDL.py'
p294
I4278
tp295
a(S'Special -> GETTER'
p296
S'Special'
p297
I1
S'p_SpecialGetter'
p298
S'/Users/mauriziobasso/Documents/javascript/emsdk/emscripten/incoming/third_party/WebIDL.py'
p299
I4284
tp300
a(S'Special -> SETTER'
p301
S'Special'
p302
I1
S'p_SpecialSetter'
p303
S'/Users/mauriziobasso/Documents/javascript/emsdk/emscripten/incoming/third_party/WebIDL.py'
p304
I4290
tp305
a(S'Special -> CREATOR'
p306
S'Special'
p307
I1
S'p_SpecialCreator'
p308
S'/Users/mauriziobasso/Documents/javascript/emsdk/emscripten/incoming/third_party/WebIDL.py'
p309
I4296
tp310
a(S'Special -> DELETER'
p311
S'Special'
p312
I1
S'p_SpecialDeleter'
p313
S'/Users/mauriziobasso/Documents/javascript/emsdk/emscripten/incoming/third_party/WebIDL.py'
p314
I4302
tp315
a(S'Special -> LEGACYCALLER'
p316
S'Special'
p317
I1
S'p_SpecialLegacyCaller'
p318
S'/Users/mauriziobasso/Documents/javascript/emsdk/emscripten/incoming/third_party/WebIDL.py'
p319
I4308
tp320
a(S'OperationRest -> ReturnType OptionalIdentifier LPAREN ArgumentList RPAREN SEMICOLON'
p321
S'OperationRest'
p322
I6
S'p_OperationRest'
p323
S'/Users/mauriziobasso/Documents/javascript/emsdk/emscripten/incoming/third_party/WebIDL.py'
p324
I4314
tp325
a(S'OptionalIdentifier -> IDENTIFIER'
p326
S'OptionalIdentifier'
p327
I1
S'p_OptionalIdentifier'
p328
S'/Users/mauriziobasso/Documents/javascript/emsdk/emscripten/incoming/third_party/WebIDL.py'
p329
I4320
tp330
a(S'OptionalIdentifier -> <empty>'
p331
S'OptionalIdentifier'
p332
I0
S'p_OptionalIdentifierEmpty'
p333
S'/Users/mauriziobasso/Documents/javascript/emsdk/emscripten/incoming/third_party/WebIDL.py'
p334
I4326
tp335
a(S'ArgumentList -> Argument Arguments'
p336
S'ArgumentList'
p337
I2
S'p_ArgumentList'
p338
S'/Users/mauriziobasso/Documents/javascript/emsdk/emscripten/incoming/third_party/WebIDL.py'
p339
I4332
tp340
a(S'ArgumentList -> <empty>'
p341
S'ArgumentList'
p342
I0
S'p_ArgumentListEmpty'
p343
S'/Users/mauriziobasso/Documents/javascript/emsdk/emscripten/incoming/third_party/WebIDL.py'
p344
I4339
tp345
a(S'Arguments -> COMMA Argument Arguments'
p346
S'Arguments'
p347
I3
S'p_Arguments'
p348
S'/Users/mauriziobasso/Documents/javascript/emsdk/emscripten/incoming/third_party/WebIDL.py'
p349
I4345
tp350
a(S'Arguments -> <empty>'
p351
S'Arguments'
p352
I0
S'p_ArgumentsEmpty'
p353
S'/Users/mauriziobasso/Documents/javascript/emsdk/emscripten/incoming/third_party/WebIDL.py'
p354
I4352
tp355
a(S'Argument -> ExtendedAttributeList Optional Type Ellipsis ArgumentName DefaultValue'
p356
S'Argument'
p357
I6
S'p_Argument'
p358
S'/Users/mauriziobasso/Documents/javascript/emsdk/emscripten/incoming/third_party/WebIDL.py'
p359
I4358
tp360
a(S'ArgumentName -> IDENTIFIER'
p361
S'ArgumentName'
p362
I1
S'p_ArgumentName'
p363
S'/Users/mauriziobasso/Documents/javascript/emsdk/emscripten/incoming/third_party/WebIDL.py'
p364
I4387
tp365
a(S'ArgumentName -> ATTRIBUTE'
p366
g362
I1
g363
g364
I4388
tp367
a(S'ArgumentName -> CALLBACK'
p368
g362
I1
g363
g364
I4389
tp369
a(S'ArgumentName -> CONST'
p370
g362
I1
g363
g364
I4390
tp371
a(S'ArgumentName -> CREATOR'
p372
g362
I1
g363
g364
I4391
tp373
a(S'ArgumentName -> DELETER'
p374
g362
I1
g363
g364
I4392
tp375
a(S'ArgumentName -> DICTIONARY'
p376
g362
I1
g363
g364
I4393
tp377
a(S'ArgumentName -> ENUM'
p378
g362
I1
g363
g364
I4394
tp379
a(S'ArgumentName -> EXCEPTION'
p380
g362
I1
g363
g364
I4395
tp381
a(S'ArgumentName -> GETTER'
p382
g362
I1
g363
g364
I4396
tp383
a(S'ArgumentName -> IMPLEMENTS'
p384
g362
I1
g363
g364
I4397
tp385
a(S'ArgumentName -> INHERIT'
p386
g362
I1
g363
g364
I4398
tp387
a(S'ArgumentName -> INTERFACE'
p388
g362
I1
g363
g364
I4399
tp389
a(S'ArgumentName -> LEGACYCALLER'
p390
g362
I1
g363
g364
I4400
tp391
a(S'ArgumentName -> PARTIAL'
p392
g362
I1
g363
g364
I4401
tp393
a(S'ArgumentName -> SERIALIZER'
p394
g362
I1
g363
g364
I4402
tp395
a(S'ArgumentName -> SETTER'
p396
g362
I1
g363
g364
I4403
tp397
a(S'ArgumentName -> STATIC'
p398
g362
I1
g363
g364
I4404
tp399
a(S'ArgumentName -> STRINGIFIER'
p400
g362
I1
g363
g364
I4405
tp401
a(S'ArgumentName -> JSONIFIER'
p402
g362
I1
g363
g364
I4406
tp403
a(S'ArgumentName -> TYPEDEF'
p404
g362
I1
g363
g364
I4407
tp405
a(S'ArgumentName -> UNRESTRICTED'
p406
g362
I1
g363
g364
I4408
tp407
a(S'Optional -> OPTIONAL'
p408
S'Optional'
p409
I1
S'p_Optional'
p410
S'/Users/mauriziobasso/Documents/javascript/emsdk/emscripten/incoming/third_party/WebIDL.py'
p411
I4414
tp412
a(S'Optional -> <empty>'
p413
S'Optional'
p414
I0
S'p_OptionalEmpty'
p415
S'/Users/mauriziobasso/Documents/javascript/emsdk/emscripten/incoming/third_party/WebIDL.py'
p416
I4420
tp417
a(S'Ellipsis -> ELLIPSIS'
p418
S'Ellipsis'
p419
I1
S'p_Ellipsis'
p420
S'/Users/mauriziobasso/Documents/javascript/emsdk/emscripten/incoming/third_party/WebIDL.py'
p421
I4426
tp422
a(S'Ellipsis -> <empty>'
p423
S'Ellipsis'
p424
I0
S'p_EllipsisEmpty'
p425
S'/Users/mauriziobasso/Documents/javascript/emsdk/emscripten/incoming/third_party/WebIDL.py'
p426
I4432
tp427
a(S'ExceptionMember -> Const'
p428
S'ExceptionMember'
p429
I1
S'p_ExceptionMember'
p430
S'/Users/mauriziobasso/Documents/javascript/emsdk/emscripten/incoming/third_party/WebIDL.py'
p431
I4438
tp432
a(S'ExceptionMember -> ExceptionField'
p433
g429
I1
g430
g431
I4439
tp434
a(S'ExceptionField -> Type IDENTIFIER SEMICOLON'
p435
S'ExceptionField'
p436
I3
S'p_ExceptionField'
p437
S'/Users/mauriziobasso/Documents/javascript/emsdk/emscripten/incoming/third_party/WebIDL.py'
p438
I4445
tp439
a(S'ExtendedAttributeList -> LBRACKET ExtendedAttribute ExtendedAttributes RBRACKET'
p440
S'ExtendedAttributeList'
p441
I4
S'p_ExtendedAttributeList'
p442
S'/Users/mauriziobasso/Documents/javascript/emsdk/emscripten/incoming/third_party/WebIDL.py'
p443
I4451
tp444
a(S'ExtendedAttributeList -> <empty>'
p445
S'ExtendedAttributeList'
p446
I0
S'p_ExtendedAttributeListEmpty'
p447
S'/Users/mauriziobasso/Documents/javascript/emsdk/emscripten/incoming/third_party/WebIDL.py'
p448
I4459
tp449
a(S'ExtendedAttribute -> ExtendedAttributeNoArgs'
p450
S'ExtendedAttribute'
p451
I1
S'p_ExtendedAttribute'
p452
S'/Users/mauriziobasso/Documents/javascript/emsdk/emscripten/incoming/third_party/WebIDL.py'
p453
I4465
tp454
a(S'ExtendedAttribute -> ExtendedAttributeArgList'
p455
g451
I1
g452
g453
I4466
tp456
a(S'ExtendedAttribute -> ExtendedAttributeIdent'
p457
g451
I1
g452
g453
I4467
tp458
a(S'ExtendedAttribute -> ExtendedAttributeNamedArgList'
p459
g451
I1
g452
g453
I4468
tp460
a(S'ExtendedAttribute -> <empty>'
p461
S'ExtendedAttribute'
p462
I0
S'p_ExtendedAttributeEmpty'
p463
S'/Users/mauriziobasso/Documents/javascript/emsdk/emscripten/incoming/third_party/WebIDL.py'
p464
I4474
tp465
a(S'ExtendedAttributes -> COMMA ExtendedAttribute ExtendedAttributes'
p466
S'ExtendedAttributes'
p467
I3
S'p_ExtendedAttributes'
p468
S'/Users/mauriziobasso/Documents/javascript/emsdk/emscripten/incoming/third_party/WebIDL.py'
p469
I4480
tp470
a(S'ExtendedAttributes -> <empty>'
p471
S'ExtendedAttributes'
p472
I0
S'p_ExtendedAttributesEmpty'
p473
S'/Users/mauriziobasso/Documents/javascript/emsdk/emscripten/incoming/third_party/WebIDL.py'
p474
I4487
tp475
a(S'Other -> INTEGER'
p476
S'Other'
p477
I1
S'p_Other'
p478
S'/Users/mauriziobasso/Documents/javascript/emsdk/emscripten/incoming/third_party/WebIDL.py'
p479
I4493
tp480
a(S'Other -> FLOATLITERAL'
p481
g477
I1
g478
g479
I4494
tp482
a(S'Other -> IDENTIFIER'
p483
g477
I1
g478
g479
I4495
tp484
a(S'Other -> STRING'
p485
g477
I1
g478
g479
I4496
tp486
a(S'Other -> OTHER'
p487
g477
I1
g478
g479
I4497
tp488
a(S'Other -> ELLIPSIS'
p489
g477
I1
g478
g479
I4498
tp490
a(S'Other -> COLON'
p491
g477
I1
g478
g479
I4499
tp492
a(S'Other -> SCOPE'
p493
g477
I1
g478
g479
I4500
tp494
a(S'Other -> SEMICOLON'
p495
g477
I1
g478
g479
I4501
tp496
a(S'Other -> LT'
p497
g477
I1
g478
g479
I4502
tp498
a(S'Other -> EQUALS'
p499
g477
I1
g478
g479
I4503
tp500
a(S'Other -> GT'
p501
g477
I1
g478
g479
I4504
tp502
a(S'Other -> QUESTIONMARK'
p503
g477
I1
g478
g479
I4505
tp504
a(S'Other -> DATE'
p505
g477
I1
g478
g479
I4506
tp506
a(S'Other -> DOMSTRING'
p507
g477
I1
g478
g479
I4507
tp508
a(S'Other -> BYTESTRING'
p509
g477
I1
g478
g479
I4508
tp510
a(S'Other -> ANY'
p511
g477
I1
g478
g479
I4509
tp512
a(S'Other -> ATTRIBUTE'
p513
g477
I1
g478
g479
I4510
tp514
a(S'Other -> BOOLEAN'
p515
g477
I1
g478
g479
I4511
tp516
a(S'Other -> BYTE'
p517
g477
I1
g478
g479
I4512
tp518
a(S'Other -> LEGACYCALLER'
p519
g477
I1
g478
g479
I4513
tp520
a(S'Other -> CONST'
p521
g477
I1
g478
g479
I4514
tp522
a(S'Other -> CREATOR'
p523
g477
I1
g478
g479
I4515
tp524
a(S'Other -> DELETER'
p525
g477
I1
g478
g479
I4516
tp526
a(S'Other -> DOUBLE'
p527
g477
I1
g478
g479
I4517
tp528
a(S'Other -> EXCEPTION'
p529
g477
I1
g478
g479
I4518
tp530
a(S'Other -> FALSE'
p531
g477
I1
g478
g479
I4519
tp532
a(S'Other -> FLOAT'
p533
g477
I1
g478
g479
I4520
tp534
a(S'Other -> GETTER'
p535
g477
I1
g478
g479
I4521
tp536
a(S'Other -> IMPLEMENTS'
p537
g477
I1
g478
g479
I4522
tp538
a(S'Other -> INHERIT'
p539
g477
I1
g478
g479
I4523
tp540
a(S'Other -> INTERFACE'
p541
g477
I1
g478
g479
I4524
tp542
a(S'Other -> LONG'
p543
g477
I1
g478
g479
I4525
tp544
a(S'Other -> MODULE'
p545
g477
I1
g478
g479
I4526
tp546
a(S'Other -> NULL'
p547
g477
I1
g478
g479
I4527
tp548
a(S'Other -> OBJECT'
p549
g477
I1
g478
g479
I4528
tp550
a(S'Other -> OCTET'
p551
g477
I1
g478
g479
I4529
tp552
a(S'Other -> OPTIONAL'
p553
g477
I1
g478
g479
I4530
tp554
a(S'Other -> SEQUENCE'
p555
g477
I1
g478
g479
I4531
tp556
a(S'Other -> SETTER'
p557
g477
I1
g478
g479
I4532
tp558
a(S'Other -> SHORT'
p559
g477
I1
g478
g479
I4533
tp560
a(S'Other -> STATIC'
p561
g477
I1
g478
g479
I4534
tp562
a(S'Other -> STRINGIFIER'
p563
g477
I1
g478
g479
I4535
tp564
a(S'Other -> JSONIFIER'
p565
g477
I1
g478
g479
I4536
tp566
a(S'Other -> TRUE'
p567
g477
I1
g478
g479
I4537
tp568
a(S'Other -> TYPEDEF'
p569
g477
I1
g478
g479
I4538
tp570
a(S'Other -> UNSIGNED'
p571
g477
I1
g478
g479
I4539
tp572
a(S'Other -> VOID'
p573
g477
I1
g478
g479
I4540
tp574
a(S'OtherOrComma -> Other'
p575
S'OtherOrComma'
p576
I1
S'p_OtherOrComma'
p577
S'/Users/mauriziobasso/Documents/javascript/emsdk/emscripten/incoming/third_party/WebIDL.py'
p578
I4546
tp579
a(S'OtherOrComma -> COMMA'
p580
g576
I1
g577
g578
I4547
tp581
a(S'Type -> SingleType'
p582
S'Type'
p583
I1
S'p_TypeSingleType'
p584
S'/Users/mauriziobasso/Documents/javascript/emsdk/emscripten/incoming/third_party/WebIDL.py'
p585
I4553
tp586
a(S'Type -> UnionType TypeSuffix'
p587
S'Type'
p588
I2
S'p_TypeUnionType'
p589
S'/Users/mauriziobasso/Documents/javascript/emsdk/emscripten/incoming/third_party/WebIDL.py'
p590
I4559
tp591
a(S'SingleType -> NonAnyType'
p592
S'SingleType'
p593
I1
S'p_SingleTypeNonAnyType'
p594
S'/Users/mauriziobasso/Documents/javascript/emsdk/emscripten/incoming/third_party/WebIDL.py'
p595
I4565
tp596
a(S'SingleType -> ANY TypeSuffixStartingWithArray'
p597
S'SingleType'
p598
I2
S'p_SingleTypeAnyType'
p599
S'/Users/mauriziobasso/Documents/javascript/emsdk/emscripten/incoming/third_party/WebIDL.py'
p600
I4571
tp601
a(S'UnionType -> LPAREN UnionMemberType OR UnionMemberType UnionMemberTypes RPAREN'
p602
S'UnionType'
p603
I6
S'p_UnionType'
p604
S'/Users/mauriziobasso/Documents/javascript/emsdk/emscripten/incoming/third_party/WebIDL.py'
p605
I4577
tp606
a(S'UnionMemberType -> NonAnyType'
p607
S'UnionMemberType'
p608
I1
S'p_UnionMemberTypeNonAnyType'
p609
S'/Users/mauriziobasso/Documents/javascript/emsdk/emscripten/incoming/third_party/WebIDL.py'
p610
I4585
tp611
a(S'UnionMemberTypeArrayOfAny -> ANY LBRACKET RBRACKET'
p612
S'UnionMemberTypeArrayOfAny'
p613
I3
S'p_UnionMemberTypeArrayOfAny'
p614
S'/Users/mauriziobasso/Documents/javascript/emsdk/emscripten/incoming/third_party/WebIDL.py'
p615
I4591
tp616
a(S'UnionMemberType -> UnionType TypeSuffix'
p617
S'UnionMemberType'
p618
I2
S'p_UnionMemberType'
p619
S'/Users/mauriziobasso/Documents/javascript/emsdk/emscripten/incoming/third_party/WebIDL.py'
p620
I4598
tp621
a(S'UnionMemberType -> UnionMemberTypeArrayOfAny TypeSuffix'
p622
g618
I2
g619
g620
I4599
tp623
a(S'UnionMemberTypes -> OR UnionMemberType UnionMemberTypes'
p624
S'UnionMemberTypes'
p625
I3
S'p_UnionMemberTypes'
p626
S'/Users/mauriziobasso/Documents/javascript/emsdk/emscripten/incoming/third_party/WebIDL.py'
p627
I4605
tp628
a(S'UnionMemberTypes -> <empty>'
p629
S'UnionMemberTypes'
p630
I0
S'p_UnionMemberTypesEmpty'
p631
S'/Users/mauriziobasso/Documents/javascript/emsdk/emscripten/incoming/third_party/WebIDL.py'
p632
I4612
tp633
a(S'NonAnyType -> PrimitiveOrStringType TypeSuffix'
p634
S'NonAnyType'
p635
I2
S'p_NonAnyType'
p636
S'/Users/mauriziobasso/Documents/javascript/emsdk/emscripten/incoming/third_party/WebIDL.py'
p637
I4618
tp638
a(S'NonAnyType -> ARRAYBUFFER TypeSuffix'
p639
g635
I2
g636
g637
I4619
tp640
a(S'NonAnyType -> OBJECT TypeSuffix'
p641
g635
I2
g636
g637
I4620
tp642
a(S'NonAnyType -> SEQUENCE LT Type GT Null'
p643
S'NonAnyType'
p644
I5
S'p_NonAnyTypeSequenceType'
p645
S'/Users/mauriziobasso/Documents/javascript/emsdk/emscripten/incoming/third_party/WebIDL.py'
p646
I4633
tp647
a(S'NonAnyType -> ScopedName TypeSuffix'
p648
S'NonAnyType'
p649
I2
S'p_NonAnyTypeScopedName'
p650
S'/Users/mauriziobasso/Documents/javascript/emsdk/emscripten/incoming/third_party/WebIDL.py'
p651
I4643
tp652
a(S'NonAnyType -> DATE TypeSuffix'
p653
S'NonAnyType'
p654
I2
S'p_NonAnyTypeDate'
p655
S'/Users/mauriziobasso/Documents/javascript/emsdk/emscripten/incoming/third_party/WebIDL.py'
p656
I4666
tp657
a(S'ConstType -> PrimitiveOrStringType Null'
p658
S'ConstType'
p659
I2
S'p_ConstType'
p660
S'/Users/mauriziobasso/Documents/javascript/emsdk/emscripten/incoming/third_party/WebIDL.py'
p661
I4673
tp662
a(S'ConstType -> IDENTIFIER Null'
p663
S'ConstType'
p664
I2
S'p_ConstTypeIdentifier'
p665
S'/Users/mauriziobasso/Documents/javascript/emsdk/emscripten/incoming/third_party/WebIDL.py'
p666
I4682
tp667
a(S'PrimitiveOrStringType -> UnsignedIntegerType'
p668
S'PrimitiveOrStringType'
p669
I1
S'p_PrimitiveOrStringTypeUint'
p670
S'/Users/mauriziobasso/Documents/javascript/emsdk/emscripten/incoming/third_party/WebIDL.py'
p671
I4693
tp672
a(S'PrimitiveOrStringType -> BOOLEAN'
p673
S'PrimitiveOrStringType'
p674
I1
S'p_PrimitiveOrStringTypeBoolean'
p675
S'/Users/mauriziobasso/Documents/javascript/emsdk/emscripten/incoming/third_party/WebIDL.py'
p676
I4699
tp677
a(S'PrimitiveOrStringType -> BYTE'
p678
S'PrimitiveOrStringType'
p679
I1
S'p_PrimitiveOrStringTypeByte'
p680
S'/Users/mauriziobasso/Documents/javascript/emsdk/emscripten/incoming/third_party/WebIDL.py'
p681
I4705
tp682
a(S'PrimitiveOrStringType -> OCTET'
p683
S'PrimitiveOrStringType'
p684
I1
S'p_PrimitiveOrStringTypeOctet'
p685
S'/Users/mauriziobasso/Documents/javascript/emsdk/emscripten/incoming/third_party/WebIDL.py'
p686
I4711
tp687
a(S'PrimitiveOrStringType -> FLOAT'
p688
S'PrimitiveOrStringType'
p689
I1
S'p_PrimitiveOrStringTypeFloat'
p690
S'/Users/mauriziobasso/Documents/javascript/emsdk/emscripten/incoming/third_party/WebIDL.py'
p691
I4717
tp692
a(S'PrimitiveOrStringType -> UNRESTRICTED FLOAT'
p693
S'PrimitiveOrStringType'
p694
I2
S'p_PrimitiveOrStringTypeUnrestictedFloat'
p695
S'/Users/mauriziobasso/Documents/javascript/emsdk/emscripten/incoming/third_party/WebIDL.py'
p696
I4723
tp697
a(S'PrimitiveOrStringType -> DOUBLE'
p698
S'PrimitiveOrStringType'
p699
I1
S'p_PrimitiveOrStringTypeDouble'
p700
S'/Users/mauriziobasso/Documents/javascript/emsdk/emscripten/incoming/third_party/WebIDL.py'
p701
I4729
tp702
a(S'PrimitiveOrStringType -> UNRESTRICTED DOUBLE'
p703
S'PrimitiveOrStringType'
p704
I2
S'p_PrimitiveOrStringTypeUnrestictedDouble'
p705
S'/Users/mauriziobasso/Documents/javascript/emsdk/emscripten/incoming/third_party/WebIDL.py'
p706
I4735
tp707
a(S'PrimitiveOrStringType -> DOMSTRING'
p708
S'PrimitiveOrStringType'
p709
I1
S'p_PrimitiveOrStringTypeDOMString'
p710
S'/Users/mauriziobasso/Documents/javascript/emsdk/emscripten/incoming/third_party/WebIDL.py'
p711
I4741
tp712
a(S'PrimitiveOrStringType -> BYTESTRING'
p713
S'PrimitiveOrStringType'
p714
I1
S'p_PrimitiveOrStringTypeBytestring'
p715
S'/Users/mauriziobasso/Documents/javascript/emsdk/emscripten/incoming/third_party/WebIDL.py'
p716
I4747
tp717
a(S'UnsignedIntegerType -> UNSIGNED IntegerType'
p718
S'UnsignedIntegerType'
p719
I2
S'p_UnsignedIntegerTypeUnsigned'
p720
S'/Users/mauriziobasso/Documents/javascript/emsdk/emscripten/incoming/third_party/WebIDL.py'
p721
I4753
tp722
a(S'UnsignedIntegerType -> IntegerType'
p723
S'UnsignedIntegerType'
p724
I1
S'p_UnsignedIntegerType'
p725
S'/Users/mauriziobasso/Documents/javascript/emsdk/emscripten/incoming/third_party/WebIDL.py'
p726
I4760
tp727
a(S'IntegerType -> SHORT'
p728
S'IntegerType'
p729
I1
S'p_IntegerTypeShort'
p730
S'/Users/mauriziobasso/Documents/javascript/emsdk/emscripten/incoming/third_party/WebIDL.py'
p731
I4766
tp732
a(S'IntegerType -> LONG OptionalLong'
p733
S'IntegerType'
p734
I2
S'p_IntegerTypeLong'
p735
S'/Users/mauriziobasso/Documents/javascript/emsdk/emscripten/incoming/third_party/WebIDL.py'
p736
I4772
tp737
a(S'OptionalLong -> LONG'
p738
S'OptionalLong'
p739
I1
S'p_OptionalLong'
p740
S'/Users/mauriziobasso/Documents/javascript/emsdk/emscripten/incoming/third_party/WebIDL.py'
p741
I4781
tp742
a(S'OptionalLong -> <empty>'
p743
S'OptionalLong'
p744
I0
S'p_OptionalLongEmpty'
p745
S'/Users/mauriziobasso/Documents/javascript/emsdk/emscripten/incoming/third_party/WebIDL.py'
p746
I4787
tp747
a(S'TypeSuffix -> LBRACKET RBRACKET TypeSuffix'
p748
S'TypeSuffix'
p749
I3
S'p_TypeSuffixBrackets'
p750
S'/Users/mauriziobasso/Documents/javascript/emsdk/emscripten/incoming/third_party/WebIDL.py'
p751
I4793
tp752
a(S'TypeSuffix -> QUESTIONMARK TypeSuffixStartingWithArray'
p753
S'TypeSuffix'
p754
I2
S'p_TypeSuffixQMark'
p755
S'/Users/mauriziobasso/Documents/javascript/emsdk/emscripten/incoming/third_party/WebIDL.py'
p756
I4800
tp757
a(S'TypeSuffix -> <empty>'
p758
S'TypeSuffix'
p759
I0
S'p_TypeSuffixEmpty'
p760
S'/Users/mauriziobasso/Documents/javascript/emsdk/emscripten/incoming/third_party/WebIDL.py'
p761
I4807
tp762
a(S'TypeSuffixStartingWithArray -> LBRACKET RBRACKET TypeSuffix'
p763
S'TypeSuffixStartingWithArray'
p764
I3
S'p_TypeSuffixStartingWithArray'
p765
S'/Users/mauriziobasso/Documents/javascript/emsdk/emscripten/incoming/third_party/WebIDL.py'
p766
I4813
tp767
a(S'TypeSuffixStartingWithArray -> <empty>'
p768
S'TypeSuffixStartingWithArray'
p769
I0
S'p_TypeSuffixStartingWithArrayEmpty'
p770
S'/Users/mauriziobasso/Documents/javascript/emsdk/emscripten/incoming/third_party/WebIDL.py'
p771
I4820
tp772
a(S'Null -> QUESTIONMARK'
p773
S'Null'
p774
I1
S'p_Null'
p775
S'/Users/mauriziobasso/Documents/javascript/emsdk/emscripten/incoming/third_party/WebIDL.py'
p776
I4826
tp777
a(S'Null -> <empty>'
p778
g774
I0
g775
g776
I4827
tp779
a(S'ReturnType -> Type'
p780
S'ReturnType'
p781
I1
S'p_ReturnTypeType'
p782
S'/Users/mauriziobasso/Documents/javascript/emsdk/emscripten/incoming/third_party/WebIDL.py'
p783
I4836
tp784
a(S'ReturnType -> VOID'
p785
S'ReturnType'
p786
I1
S'p_ReturnTypeVoid'
p787
S'/Users/mauriziobasso/Documents/javascript/emsdk/emscripten/incoming/third_party/WebIDL.py'
p788
I4842
tp789
a(S'ScopedName -> AbsoluteScopedName'
p790
S'ScopedName'
p791
I1
S'p_ScopedName'
p792
S'/Users/mauriziobasso/Documents/javascript/emsdk/emscripten/incoming/third_party/WebIDL.py'
p793
I4848
tp794
a(S'ScopedName -> RelativeScopedName'
p795
g791
I1
g792
g793
I4849
tp796
a(S'AbsoluteScopedName -> SCOPE IDENTIFIER ScopedNameParts'
p797
S'AbsoluteScopedName'
p798
I3
S'p_AbsoluteScopedName'
p799
S'/Users/mauriziobasso/Documents/javascript/emsdk/emscripten/incoming/third_party/WebIDL.py'
p800
I4855
tp801
a(S'RelativeScopedName -> IDENTIFIER ScopedNameParts'
p802
S'RelativeScopedName'
p803
I2
S'p_RelativeScopedName'
p804
S'/Users/mauriziobasso/Documents/javascript/emsdk/emscripten/incoming/third_party/WebIDL.py'
p805
I4862
tp806
a(S'ScopedNameParts -> SCOPE IDENTIFIER ScopedNameParts'
p807
S'ScopedNameParts'
p808
I3
S'p_ScopedNameParts'
p809
S'/Users/mauriziobasso/Documents/javascript/emsdk/emscripten/incoming/third_party/WebIDL.py'
p810
I4870
tp811
a(S'ScopedNameParts -> <empty>'
p812
S'ScopedNameParts'
p813
I0
S'p_ScopedNamePartsEmpty'
p814
S'/Users/mauriziobasso/Documents/javascript/emsdk/emscripten/incoming/third_party/WebIDL.py'
p815
I4877
tp816
a(S'ExtendedAttributeNoArgs -> IDENTIFIER'
p817
S'ExtendedAttributeNoArgs'
p818
I1
S'p_ExtendedAttributeNoArgs'
p819
S'/Users/mauriziobasso/Documents/javascript/emsdk/emscripten/incoming/third_party/WebIDL.py'
p820
I4883
tp821
a(S'ExtendedAttributeArgList -> IDENTIFIER LPAREN ArgumentList RPAREN'
p822
S'ExtendedAttributeArgList'
p823
I4
S'p_ExtendedAttributeArgList'
p824
S'/Users/mauriziobasso/Documents/javascript/emsdk/emscripten/incoming/third_party/WebIDL.py'
p825
I4889
tp826
a(S'ExtendedAttributeIdent -> IDENTIFIER EQUALS STRING'
p827
S'ExtendedAttributeIdent'
p828
I3
S'p_ExtendedAttributeIdent'
p829
S'/Users/mauriziobasso/Documents/javascript/emsdk/emscripten/incoming/third_party/WebIDL.py'
p830
I4895
tp831
a(S'ExtendedAttributeIdent -> IDENTIFIER EQUALS IDENTIFIER'
p832
g828
I3
g829
g830
I4896
tp833
a(S'ExtendedAttributeNamedArgList -> IDENTIFIER EQUALS IDENTIFIER LPAREN ArgumentList RPAREN'
p834
S'ExtendedAttributeNamedArgList'
p835
I6
S'p_ExtendedAttributeNamedArgList'
p836
S'/Users/mauriziobasso/Documents/javascript/emsdk/emscripten/incoming/third_party/WebIDL.py'
p837
I4902
tp838
a.